(dp1
(F0.00029999999999999997
I500
F0.5
I5
I5
I300
tp2
(dp3
S'acc'
p4
F0.98829268292682915
sS'rec'
p5
F0.97444444444444434
sS'prec'
p6
F0.99890109890109879
sS'f1'
p7
F0.98479783228349216
ss(F0.00029999999999999997
I1200
F0.5
I2
I5
I300
tp8
(dp9
g4
F0.99999999999999989
sg5
F0.99999999999999989
sg6
F0.99999999999999989
sg7
F0.99999999999999989
ss(F0.00029999999999999997
I1200
F0.10000000000000001
I10
I20
I300
tp10
(dp11
g4
F0.99999999999999989
sg5
F0.99999999999999989
sg6
F0.99999999999999989
sg7
F0.99999999999999989
ss(F0.00029999999999999997
I800
F0.29999999999999999
I10
I20
I300
tp12
(dp13
g4
F0.99999999999999989
sg5
F0.99999999999999989
sg6
F0.99999999999999989
sg7
F0.99999999999999989
ss(F0.00029999999999999997
I1000
F0.29999999999999999
I5
I7
I300
tp14
(dp15
g4
F0.99999999999999989
sg5
F0.99999999999999989
sg6
F0.99999999999999989
sg7
F0.99999999999999989
ss(F0.00029999999999999997
I1200
F0.29999999999999999
I7
I7
I300
tp16
(dp17
g4
F0.99999999999999989
sg5
F0.99999999999999989
sg6
F0.99999999999999989
sg7
F0.99999999999999989
ss(F0.00029999999999999997
I500
F0.75
I5
I5
I300
tp18
(dp19
g4
F0.9970731707317072
sg5
F0.99333333333333329
sg6
F0.99999999999999989
sg7
F0.99655172413793092
ss(F0.00029999999999999997
I300
F0.10000000000000001
I2
I10
I300
tp20
(dp21
g4
F0.99999999999999989
sg5
F0.99999999999999989
sg6
F0.99999999999999989
sg7
F0.99999999999999989
ss(F0.00029999999999999997
I500
F0.90000000000000002
I5
I5
I300
tp22
(dp23
g4
F0.95609756097560972
sg5
F0.89999999999999991
sg6
F0.89999999999999991
sg7
F0.89999999999999991
ss(F0.00029999999999999997
I1200
F0.10000000000000001
I3
I10
I300
tp24
(dp25
g4
F0.99999999999999989
sg5
F0.99999999999999989
sg6
F0.99999999999999989
sg7
F0.99999999999999989
ss(F0.00029999999999999997
I1000
F0.29999999999999999
I7
I7
I300
tp26
(dp27
g4
F0.99999999999999989
sg5
F0.99999999999999989
sg6
F0.99999999999999989
sg7
F0.99999999999999989
ss(F0.00029999999999999997
I1000
F0.5
I7
I10
I300
tp28
(dp29
g4
F0.99999999999999989
sg5
F0.99999999999999989
sg6
F0.99999999999999989
sg7
F0.99999999999999989
ss(F0.00029999999999999997
I1200
F0.75
I5
I10
I300
tp30
(dp31
g4
F0.99999999999999989
sg5
F0.99999999999999989
sg6
F0.99999999999999989
sg7
F0.99999999999999989
ss(F0.00029999999999999997
I1000
F0.10000000000000001
I10
I15
I300
tp32
(dp33
g4
F0.99999999999999989
sg5
F0.99999999999999989
sg6
F0.99999999999999989
sg7
F0.99999999999999989
ss(F0.00029999999999999997
I300
F0.10000000000000001
I3
I15
I300
tp34
(dp35
g4
F0.99999999999999989
sg5
F0.99999999999999989
sg6
F0.99999999999999989
sg7
F0.99999999999999989
ss(F0.00029999999999999997
I1200
F0.5
I10
I5
I300
tp36
(dp37
g4
F0.95609756097560972
sg5
F0.89999999999999991
sg6
F0.89999999999999991
sg7
F0.89999999999999991
ss(F0.00029999999999999997
I1200
F0.90000000000000002
I2
I20
I300
tp38
(dp39
g4
F0.99999999999999989
sg5
F0.99999999999999989
sg6
F0.99999999999999989
sg7
F0.99999999999999989
ss(F0.00029999999999999997
I500
F0.75
I3
I7
I300
tp40
(dp41
g4
F0.99999999999999989
sg5
F0.99999999999999989
sg6
F0.99999999999999989
sg7
F0.99999999999999989
ss(F0.00029999999999999997
I300
F0.10000000000000001
I3
I5
I300
tp42
(dp43
g4
F0.9107317073170732
sg5
F0.79666666666666663
sg6
F0.79999999999999993
sg7
F0.79832402234636879
ss(F0.00029999999999999997
I800
F0.75
I5
I15
I300
tp44
(dp45
g4
F0.99999999999999989
sg5
F0.99999999999999989
sg6
F0.99999999999999989
sg7
F0.99999999999999989
ss(F0.00029999999999999997
I1000
F0.5
I10
I20
I300
tp46
(dp47
g4
F0.99999999999999989
sg5
F0.99999999999999989
sg6
F0.99999999999999989
sg7
F0.99999999999999989
ss(F0.00029999999999999997
I1000
F0.5
I3
I15
I300
tp48
(dp49
g4
F0.99999999999999989
sg5
F0.99999999999999989
sg6
F0.99999999999999989
sg7
F0.99999999999999989
ss(F0.00029999999999999997
I800
F0.29999999999999999
I5
I15
I300
tp50
(dp51
g4
F0.99999999999999989
sg5
F0.99999999999999989
sg6
F0.99999999999999989
sg7
F0.99999999999999989
ss(F0.00029999999999999997
I1200
F0.5
I7
I20
I300
tp52
(dp53
g4
F0.99999999999999989
sg5
F0.99999999999999989
sg6
F0.99999999999999989
sg7
F0.99999999999999989
ss(F0.00029999999999999997
I1200
F0.75
I5
I5
I300
tp54
(dp55
g4
F0.99999999999999989
sg5
F0.99999999999999989
sg6
F0.99999999999999989
sg7
F0.99999999999999989
ss(F0.00029999999999999997
I1200
F0.10000000000000001
I3
I20
I300
tp56
(dp57
g4
F0.99999999999999989
sg5
F0.99999999999999989
sg6
F0.99999999999999989
sg7
F0.99999999999999989
ss(F0.00029999999999999997
I300
F0.5
I5
I10
I300
tp58
(dp59
g4
F0.99999999999999989
sg5
F0.99999999999999989
sg6
F0.99999999999999989
sg7
F0.99999999999999989
ss(F0.00029999999999999997
I500
F0.29999999999999999
I10
I15
I300
tp60
(dp61
g4
F0.99999999999999989
sg5
F0.99999999999999989
sg6
F0.99999999999999989
sg7
F0.99999999999999989
ss(F0.00029999999999999997
I500
F0.5
I3
I5
I300
tp62
(dp63
g4
F0.98634146341463402
sg5
F0.9688888888888888
sg6
F0.99999999999999989
sg7
F0.98179428195859353
ss(F0.00029999999999999997
I1200
F0.5
I3
I5
I300
tp64
(dp65
g4
F0.99999999999999989
sg5
F0.99999999999999989
sg6
F0.99999999999999989
sg7
F0.99999999999999989
ss(F0.00029999999999999997
I800
F0.10000000000000001
I2
I7
I300
tp66
(dp67
g4
F0.99999999999999989
sg5
F0.99999999999999989
sg6
F0.99999999999999989
sg7
F0.99999999999999989
ss(F0.00029999999999999997
I1200
F0.90000000000000002
I3
I10
I300
tp68
(dp69
g4
F0.99999999999999989
sg5
F0.99999999999999989
sg6
F0.99999999999999989
sg7
F0.99999999999999989
ss(F0.00029999999999999997
I500
F0.29999999999999999
I5
I15
I300
tp70
(dp71
g4
F0.99999999999999989
sg5
F0.99999999999999989
sg6
F0.99999999999999989
sg7
F0.99999999999999989
ss(F0.00029999999999999997
I1000
F0.5
I5
I10
I300
tp72
(dp73
g4
F0.99999999999999989
sg5
F0.99999999999999989
sg6
F0.99999999999999989
sg7
F0.99999999999999989
ss(F0.00029999999999999997
I800
F0.10000000000000001
I3
I15
I300
tp74
(dp75
g4
F0.99999999999999989
sg5
F0.99999999999999989
sg6
F0.99999999999999989
sg7
F0.99999999999999989
ss(F0.00029999999999999997
I1000
F0.75
I2
I7
I300
tp76
(dp77
g4
F0.99999999999999989
sg5
F0.99999999999999989
sg6
F0.99999999999999989
sg7
F0.99999999999999989
ss(F0.00029999999999999997
I1200
F0.29999999999999999
I5
I15
I300
tp78
(dp79
g4
F0.99999999999999989
sg5
F0.99999999999999989
sg6
F0.99999999999999989
sg7
F0.99999999999999989
ss(F0.00029999999999999997
I800
F0.5
I3
I20
I300
tp80
(dp81
g4
F0.99999999999999989
sg5
F0.99999999999999989
sg6
F0.99999999999999989
sg7
F0.99999999999999989
ss(F0.00029999999999999997
I1000
F0.90000000000000002
I10
I10
I300
tp82
(dp83
g4
F0.99999999999999989
sg5
F0.99999999999999989
sg6
F0.99999999999999989
sg7
F0.99999999999999989
ss(F0.00029999999999999997
I300
F0.10000000000000001
I7
I5
I300
tp84
(dp85
g4
F0.77707317073170734
sg5
F0.49222222222222217
sg6
F0.5
sg7
F0.49599306492005391
ss(F0.00029999999999999997
I1000
F0.5
I10
I5
I300
tp86
(dp87
g4
F0.91219512195121955
sg5
F0.79999999999999993
sg6
F0.79999999999999993
sg7
F0.79999999999999993
ss(F0.00029999999999999997
I500
F0.90000000000000002
I5
I10
I300
tp88
(dp89
g4
F0.99999999999999989
sg5
F0.99999999999999989
sg6
F0.99999999999999989
sg7
F0.99999999999999989
ss(F0.00029999999999999997
I300
F0.10000000000000001
I10
I15
I300
tp90
(dp91
g4
F0.99999999999999989
sg5
F0.99999999999999989
sg6
F0.99999999999999989
sg7
F0.99999999999999989
ss(F0.00029999999999999997
I300
F0.29999999999999999
I3
I10
I300
tp92
(dp93
g4
F0.99999999999999989
sg5
F0.99999999999999989
sg6
F0.99999999999999989
sg7
F0.99999999999999989
ss(F0.00029999999999999997
I800
F0.90000000000000002
I5
I10
I300
tp94
(dp95
g4
F0.99999999999999989
sg5
F0.99999999999999989
sg6
F0.99999999999999989
sg7
F0.99999999999999989
ss(F0.00029999999999999997
I800
F0.5
I5
I20
I300
tp96
(dp97
g4
F0.99999999999999989
sg5
F0.99999999999999989
sg6
F0.99999999999999989
sg7
F0.99999999999999989
ss(F0.00029999999999999997
I300
F0.5
I7
I5
I300
tp98
(dp99
g4
F0.82439024390243909
sg5
F0.59999999999999998
sg6
F0.59999999999999998
sg7
F0.59999999999999998
ss(F0.00029999999999999997
I1200
F0.5
I2
I15
I300
tp100
(dp101
g4
F0.99999999999999989
sg5
F0.99999999999999989
sg6
F0.99999999999999989
sg7
F0.99999999999999989
ss(F0.00029999999999999997
I500
F0.5
I5
I7
I300
tp102
(dp103
g4
F0.99999999999999989
sg5
F0.99999999999999989
sg6
F0.99999999999999989
sg7
F0.99999999999999989
ss(F0.00029999999999999997
I300
F0.75
I2
I5
I300
tp104
(dp105
g4
F0.98926829268292671
sg5
F0.97555555555555562
sg6
F0.99999999999999989
sg7
F0.98707237774596912
ss(F0.00029999999999999997
I1000
F0.75
I7
I20
I300
tp106
(dp107
g4
F0.99999999999999989
sg5
F0.99999999999999989
sg6
F0.99999999999999989
sg7
F0.99999999999999989
ss(F0.00029999999999999997
I800
F0.90000000000000002
I3
I5
I300
tp108
(dp109
g4
F0.99951219512195111
sg5
F0.99888888888888883
sg6
F0.99999999999999989
sg7
F0.99944134078212277
ss(F0.00029999999999999997
I800
F0.5
I10
I15
I300
tp110
(dp111
g4
F0.99999999999999989
sg5
F0.99999999999999989
sg6
F0.99999999999999989
sg7
F0.99999999999999989
ss(F0.00029999999999999997
I300
F0.90000000000000002
I5
I20
I300
tp112
(dp113
g4
F0.99999999999999989
sg5
F0.99999999999999989
sg6
F0.99999999999999989
sg7
F0.99999999999999989
ss(F0.00029999999999999997
I1200
F0.10000000000000001
I5
I15
I300
tp114
(dp115
g4
F0.99999999999999989
sg5
F0.99999999999999989
sg6
F0.99999999999999989
sg7
F0.99999999999999989
ss(F0.00029999999999999997
I500
F0.5
I5
I20
I300
tp116
(dp117
g4
F0.99999999999999989
sg5
F0.99999999999999989
sg6
F0.99999999999999989
sg7
F0.99999999999999989
ss(F0.00029999999999999997
I500
F0.10000000000000001
I7
I20
I300
tp118
(dp119
g4
F0.99999999999999989
sg5
F0.99999999999999989
sg6
F0.99999999999999989
sg7
F0.99999999999999989
ss(F0.00029999999999999997
I1200
F0.10000000000000001
I7
I7
I300
tp120
(dp121
g4
F0.99999999999999989
sg5
F0.99999999999999989
sg6
F0.99999999999999989
sg7
F0.99999999999999989
ss(F0.00029999999999999997
I300
F0.29999999999999999
I5
I15
I300
tp122
(dp123
g4
F0.99999999999999989
sg5
F0.99999999999999989
sg6
F0.99999999999999989
sg7
F0.99999999999999989
ss(F0.00029999999999999997
I500
F0.90000000000000002
I5
I15
I300
tp124
(dp125
g4
F0.99999999999999989
sg5
F0.99999999999999989
sg6
F0.99999999999999989
sg7
F0.99999999999999989
ss(F0.00029999999999999997
I300
F0.5
I10
I5
I300
tp126
(dp127
g4
F0.758048780487805
sg5
F0.44888888888888889
sg6
F0.5
sg7
F0.46837278300495033
ss(F0.00029999999999999997
I800
F0.90000000000000002
I7
I20
I300
tp128
(dp129
g4
F0.99999999999999989
sg5
F0.99999999999999989
sg6
F0.99999999999999989
sg7
F0.99999999999999989
ss(F0.00029999999999999997
I800
F0.90000000000000002
I7
I5
I300
tp130
(dp131
g4
F0.95609756097560972
sg5
F0.89999999999999991
sg6
F0.89999999999999991
sg7
F0.89999999999999991
ss(F0.00029999999999999997
I800
F0.29999999999999999
I5
I5
I300
tp132
(dp133
g4
F0.99999999999999989
sg5
F0.99999999999999989
sg6
F0.99999999999999989
sg7
F0.99999999999999989
ss(F0.00029999999999999997
I500
F0.5
I10
I7
I300
tp134
(dp135
g4
F0.91219512195121955
sg5
F0.79999999999999993
sg6
F0.79999999999999993
sg7
F0.79999999999999993
ss(F0.00029999999999999997
I1000
F0.29999999999999999
I10
I15
I300
tp136
(dp137
g4
F0.99999999999999989
sg5
F0.99999999999999989
sg6
F0.99999999999999989
sg7
F0.99999999999999989
ss(F0.00029999999999999997
I500
F0.75
I2
I5
I300
tp138
(dp139
g4
F0.99804878048780477
sg5
F0.99555555555555553
sg6
F0.99999999999999989
sg7
F0.99776536312849162
ss(F0.00029999999999999997
I800
F0.90000000000000002
I3
I7
I300
tp140
(dp141
g4
F0.99999999999999989
sg5
F0.99999999999999989
sg6
F0.99999999999999989
sg7
F0.99999999999999989
ss(F0.00029999999999999997
I500
F0.75
I7
I7
I300
tp142
(dp143
g4
F0.99999999999999989
sg5
F0.99999999999999989
sg6
F0.99999999999999989
sg7
F0.99999999999999989
ss(F0.00029999999999999997
I1000
F0.10000000000000001
I5
I20
I300
tp144
(dp145
g4
F0.99999999999999989
sg5
F0.99999999999999989
sg6
F0.99999999999999989
sg7
F0.99999999999999989
ss(F0.00029999999999999997
I1000
F0.75
I7
I10
I300
tp146
(dp147
g4
F0.99999999999999989
sg5
F0.99999999999999989
sg6
F0.99999999999999989
sg7
F0.99999999999999989
ss(F0.00029999999999999997
I1000
F0.90000000000000002
I10
I5
I300
tp148
(dp149
g4
F0.82439024390243909
sg5
F0.59999999999999998
sg6
F0.59999999999999998
sg7
F0.59999999999999998
ss(F0.00029999999999999997
I300
F0.10000000000000001
I2
I20
I300
tp150
(dp151
g4
F0.99999999999999989
sg5
F0.99999999999999989
sg6
F0.99999999999999989
sg7
F0.99999999999999989
ss(F0.00029999999999999997
I300
F0.10000000000000001
I2
I5
I300
tp152
(dp153
S'acc'
p154
F0.98146341463414621
sS'rec'
p155
F0.95777777777777784
sS'prec'
p156
F0.99999999999999989
sS'f1'
p157
F0.97752258590427521
ss(F0.00029999999999999997
I500
F0.29999999999999999
I7
I7
I300
tp158
(dp159
g4
F0.99999999999999989
sg5
F0.99999999999999989
sg6
F0.99999999999999989
sg7
F0.99999999999999989
ss(F0.00029999999999999997
I800
F0.75
I3
I5
I300
tp160
(dp161
g4
F0.99999999999999989
sg5
F0.99999999999999989
sg6
F0.99999999999999989
sg7
F0.99999999999999989
ss(F0.00029999999999999997
I500
F0.90000000000000002
I3
I5
I300
tp162
(dp163
g4
F0.94195121951219496
sg5
F0.86777777777777776
sg6
F0.99999999999999989
sg7
F0.89024630678114092
ss(F0.00029999999999999997
I300
F0.90000000000000002
I7
I20
I300
tp164
(dp165
g4
F0.99999999999999989
sg5
F0.99999999999999989
sg6
F0.99999999999999989
sg7
F0.99999999999999989
ss(F0.00029999999999999997
I500
F0.29999999999999999
I5
I5
I300
tp166
(dp167
g4
F0.99804878048780477
sg5
F0.99555555555555553
sg6
F0.99999999999999989
sg7
F0.99772727272727268
ss(F0.00029999999999999997
I300
F0.5
I3
I20
I300
tp168
(dp169
g4
F0.99999999999999989
sg5
F0.99999999999999989
sg6
F0.99999999999999989
sg7
F0.99999999999999989
ss(F0.00029999999999999997
I800
F0.10000000000000001
I7
I15
I300
tp170
(dp171
g4
F0.99999999999999989
sg5
F0.99999999999999989
sg6
F0.99999999999999989
sg7
F0.99999999999999989
ss(F0.00029999999999999997
I300
F0.75
I7
I10
I300
tp172
(dp173
g4
F0.99999999999999989
sg5
F0.99999999999999989
sg6
F0.99999999999999989
sg7
F0.99999999999999989
ss(F0.00029999999999999997
I300
F0.10000000000000001
I3
I20
I300
tp174
(dp175
g4
F0.99999999999999989
sg5
F0.99999999999999989
sg6
F0.99999999999999989
sg7
F0.99999999999999989
ss(F0.00029999999999999997
I1000
F0.10000000000000001
I2
I15
I300
tp176
(dp177
g4
F0.99999999999999989
sg5
F0.99999999999999989
sg6
F0.99999999999999989
sg7
F0.99999999999999989
ss(F0.00029999999999999997
I1200
F0.75
I3
I10
I300
tp178
(dp179
g4
F0.99999999999999989
sg5
F0.99999999999999989
sg6
F0.99999999999999989
sg7
F0.99999999999999989
ss(F0.00029999999999999997
I1200
F0.90000000000000002
I7
I15
I300
tp180
(dp181
g4
F0.99999999999999989
sg5
F0.99999999999999989
sg6
F0.99999999999999989
sg7
F0.99999999999999989
ss(F0.00029999999999999997
I500
F0.5
I7
I20
I300
tp182
(dp183
g4
F0.99999999999999989
sg5
F0.99999999999999989
sg6
F0.99999999999999989
sg7
F0.99999999999999989
ss(F0.00029999999999999997
I500
F0.90000000000000002
I2
I20
I300
tp184
(dp185
g4
F0.99999999999999989
sg5
F0.99999999999999989
sg6
F0.99999999999999989
sg7
F0.99999999999999989
ss(F0.00029999999999999997
I1000
F0.10000000000000001
I2
I10
I300
tp186
(dp187
g4
F0.99999999999999989
sg5
F0.99999999999999989
sg6
F0.99999999999999989
sg7
F0.99999999999999989
ss(F0.00029999999999999997
I300
F0.10000000000000001
I3
I10
I300
tp188
(dp189
g4
F0.99951219512195111
sg5
F0.99888888888888883
sg6
F0.99999999999999989
sg7
F0.99944134078212277
ss(F0.00029999999999999997
I500
F0.10000000000000001
I10
I7
I300
tp190
(dp191
g4
F0.99999999999999989
sg5
F0.99999999999999989
sg6
F0.99999999999999989
sg7
F0.99999999999999989
ss(F0.00029999999999999997
I300
F0.29999999999999999
I10
I15
I300
tp192
(dp193
g4
F0.99999999999999989
sg5
F0.99999999999999989
sg6
F0.99999999999999989
sg7
F0.99999999999999989
ss(F0.00029999999999999997
I800
F0.29999999999999999
I2
I20
I300
tp194
(dp195
g4
F0.99999999999999989
sg5
F0.99999999999999989
sg6
F0.99999999999999989
sg7
F0.99999999999999989
ss(F0.00029999999999999997
I1200
F0.29999999999999999
I5
I5
I300
tp196
(dp197
g4
F0.99999999999999989
sg5
F0.99999999999999989
sg6
F0.99999999999999989
sg7
F0.99999999999999989
ss(F0.00029999999999999997
I1000
F0.10000000000000001
I10
I10
I300
tp198
(dp199
g4
F0.99999999999999989
sg5
F0.99999999999999989
sg6
F0.99999999999999989
sg7
F0.99999999999999989
ss(F0.00029999999999999997
I300
F0.75
I2
I10
I300
tp200
(dp201
g4
F0.99365853658536574
sg5
F0.98555555555555541
sg6
F0.99999999999999989
sg7
F0.99237380582460077
ss(F0.00029999999999999997
I800
F0.10000000000000001
I2
I20
I300
tp202
(dp203
g4
F0.99999999999999989
sg5
F0.99999999999999989
sg6
F0.99999999999999989
sg7
F0.99999999999999989
ss(F0.00029999999999999997
I800
F0.90000000000000002
I10
I20
I300
tp204
(dp205
g4
F0.99999999999999989
sg5
F0.99999999999999989
sg6
F0.99999999999999989
sg7
F0.99999999999999989
ss(F0.00029999999999999997
I800
F0.75
I3
I20
I300
tp206
(dp207
g4
F0.99999999999999989
sg5
F0.99999999999999989
sg6
F0.99999999999999989
sg7
F0.99999999999999989
ss(F0.00029999999999999997
I1000
F0.5
I3
I10
I300
tp208
(dp209
g4
F0.99999999999999989
sg5
F0.99999999999999989
sg6
F0.99999999999999989
sg7
F0.99999999999999989
ss(F0.00029999999999999997
I300
F0.10000000000000001
I7
I7
I300
tp210
(dp211
g4
F0.99999999999999989
sg5
F0.99999999999999989
sg6
F0.99999999999999989
sg7
F0.99999999999999989
ss(F0.00029999999999999997
I500
F0.10000000000000001
I2
I10
I300
tp212
(dp213
g4
F0.99999999999999989
sg5
F0.99999999999999989
sg6
F0.99999999999999989
sg7
F0.99999999999999989
ss(F0.00029999999999999997
I1200
F0.75
I10
I5
I300
tp214
(dp215
g4
F0.95609756097560972
sg5
F0.89999999999999991
sg6
F0.89999999999999991
sg7
F0.89999999999999991
ss(F0.00029999999999999997
I1000
F0.29999999999999999
I7
I15
I300
tp216
(dp217
g4
F0.99999999999999989
sg5
F0.99999999999999989
sg6
F0.99999999999999989
sg7
F0.99999999999999989
ss(F0.00029999999999999997
I500
F0.29999999999999999
I10
I20
I300
tp218
(dp219
g4
F0.99999999999999989
sg5
F0.99999999999999989
sg6
F0.99999999999999989
sg7
F0.99999999999999989
ss(F0.00029999999999999997
I1200
F0.90000000000000002
I7
I10
I300
tp220
(dp221
g4
F0.99999999999999989
sg5
F0.99999999999999989
sg6
F0.99999999999999989
sg7
F0.99999999999999989
ss(F0.00029999999999999997
I1000
F0.90000000000000002
I5
I10
I300
tp222
(dp223
g4
F0.99999999999999989
sg5
F0.99999999999999989
sg6
F0.99999999999999989
sg7
F0.99999999999999989
ss(F0.00029999999999999997
I1000
F0.10000000000000001
I10
I7
I300
tp224
(dp225
g4
F0.95609756097560961
sg5
F0.89999999999999991
sg6
F0.89999999999999991
sg7
F0.89999999999999991
ss(F0.00029999999999999997
I500
F0.10000000000000001
I3
I15
I300
tp226
(dp227
g4
F0.99999999999999989
sg5
F0.99999999999999989
sg6
F0.99999999999999989
sg7
F0.99999999999999989
ss(F0.00029999999999999997
I800
F0.5
I3
I7
I300
tp228
(dp229
g4
F0.99999999999999989
sg5
F0.99999999999999989
sg6
F0.99999999999999989
sg7
F0.99999999999999989
ss(F0.00029999999999999997
I1000
F0.5
I7
I20
I300
tp230
(dp231
g4
F0.99999999999999989
sg5
F0.99999999999999989
sg6
F0.99999999999999989
sg7
F0.99999999999999989
ss(F0.00029999999999999997
I1000
F0.90000000000000002
I7
I10
I300
tp232
(dp233
g4
F0.99999999999999989
sg5
F0.99999999999999989
sg6
F0.99999999999999989
sg7
F0.99999999999999989
ss(F0.00029999999999999997
I800
F0.10000000000000001
I3
I20
I300
tp234
(dp235
g4
F0.99999999999999989
sg5
F0.99999999999999989
sg6
F0.99999999999999989
sg7
F0.99999999999999989
ss(F0.00029999999999999997
I1000
F0.29999999999999999
I2
I15
I300
tp236
(dp237
g4
F0.99999999999999989
sg5
F0.99999999999999989
sg6
F0.99999999999999989
sg7
F0.99999999999999989
ss(F0.00029999999999999997
I800
F0.29999999999999999
I5
I7
I300
tp238
(dp239
g4
F0.99999999999999989
sg5
F0.99999999999999989
sg6
F0.99999999999999989
sg7
F0.99999999999999989
ss(F0.00029999999999999997
I800
F0.75
I2
I7
I300
tp240
(dp241
g4
F0.99999999999999989
sg5
F0.99999999999999989
sg6
F0.99999999999999989
sg7
F0.99999999999999989
ss(F0.00029999999999999997
I800
F0.90000000000000002
I3
I15
I300
tp242
(dp243
g4
F0.99999999999999989
sg5
F0.99999999999999989
sg6
F0.99999999999999989
sg7
F0.99999999999999989
ss(F0.00029999999999999997
I500
F0.5
I7
I15
I300
tp244
(dp245
g4
F0.99999999999999989
sg5
F0.99999999999999989
sg6
F0.99999999999999989
sg7
F0.99999999999999989
ss(F0.00029999999999999997
I500
F0.75
I10
I10
I300
tp246
(dp247
g4
F0.99999999999999989
sg5
F0.99999999999999989
sg6
F0.99999999999999989
sg7
F0.99999999999999989
ss(F0.00029999999999999997
I800
F0.5
I2
I7
I300
tp248
(dp249
g4
F0.99999999999999989
sg5
F0.99999999999999989
sg6
F0.99999999999999989
sg7
F0.99999999999999989
ss(F0.00029999999999999997
I800
F0.5
I10
I5
I300
tp250
(dp251
g4
F0.78048780487804881
sg5
F0.5
sg6
F0.5
sg7
F0.5
ss(F0.00029999999999999997
I300
F0.5
I5
I20
I300
tp252
(dp253
g4
F0.99999999999999989
sg5
F0.99999999999999989
sg6
F0.99999999999999989
sg7
F0.99999999999999989
ss(F0.00029999999999999997
I1000
F0.75
I10
I20
I300
tp254
(dp255
g4
F0.99999999999999989
sg5
F0.99999999999999989
sg6
F0.99999999999999989
sg7
F0.99999999999999989
ss(F0.00029999999999999997
I500
F0.29999999999999999
I7
I5
I300
tp256
(dp257
g4
F0.95463414634146337
sg5
F0.89777777777777767
sg6
F0.89890109890109882
sg7
F0.89832391830653668
ss(F0.00029999999999999997
I500
F0.5
I2
I7
I300
tp258
(dp259
g4
F0.99951219512195111
sg5
F0.99888888888888883
sg6
F0.99999999999999989
sg7
F0.99944134078212277
ss(F0.00029999999999999997
I800
F0.5
I2
I5
I300
tp260
(dp261
g4
F0.99999999999999989
sg5
F0.99999999999999989
sg6
F0.99999999999999989
sg7
F0.99999999999999989
ss(F0.00029999999999999997
I1000
F0.5
I3
I20
I300
tp262
(dp263
g4
F0.99999999999999989
sg5
F0.99999999999999989
sg6
F0.99999999999999989
sg7
F0.99999999999999989
ss(F0.00029999999999999997
I300
F0.29999999999999999
I5
I20
I300
tp264
(dp265
g4
F0.99999999999999989
sg5
F0.99999999999999989
sg6
F0.99999999999999989
sg7
F0.99999999999999989
ss(F0.00029999999999999997
I500
F0.29999999999999999
I5
I7
I300
tp266
(dp267
g4
F0.99999999999999989
sg5
F0.99999999999999989
sg6
F0.99999999999999989
sg7
F0.99999999999999989
ss(F0.00029999999999999997
I1200
F0.5
I5
I10
I300
tp268
(dp269
g4
F0.99999999999999989
sg5
F0.99999999999999989
sg6
F0.99999999999999989
sg7
F0.99999999999999989
ss(F0.00029999999999999997
I300
F0.75
I5
I20
I300
tp270
(dp271
g4
F0.99999999999999989
sg5
F0.99999999999999989
sg6
F0.99999999999999989
sg7
F0.99999999999999989
ss(F0.00029999999999999997
I1200
F0.75
I7
I7
I300
tp272
(dp273
g4
F0.99999999999999989
sg5
F0.99999999999999989
sg6
F0.99999999999999989
sg7
F0.99999999999999989
ss(F0.00029999999999999997
I300
F0.75
I3
I15
I300
tp274
(dp275
g4
F0.99999999999999989
sg5
F0.99999999999999989
sg6
F0.99999999999999989
sg7
F0.99999999999999989
ss(F0.00029999999999999997
I500
F0.90000000000000002
I10
I20
I300
tp276
(dp277
g4
F0.99999999999999989
sg5
F0.99999999999999989
sg6
F0.99999999999999989
sg7
F0.99999999999999989
ss(F0.00029999999999999997
I1200
F0.90000000000000002
I2
I15
I300
tp278
(dp279
g4
F0.99999999999999989
sg5
F0.99999999999999989
sg6
F0.99999999999999989
sg7
F0.99999999999999989
ss(F0.00029999999999999997
I300
F0.90000000000000002
I5
I15
I300
tp280
(dp281
g4
F0.99999999999999989
sg5
F0.99999999999999989
sg6
F0.99999999999999989
sg7
F0.99999999999999989
ss(F0.00029999999999999997
I500
F0.10000000000000001
I2
I7
I300
tp282
(dp283
g4
F0.99658536585365842
sg5
F0.99222222222222212
sg6
F0.99999999999999989
sg7
F0.99599306492005379
ss(F0.00029999999999999997
I1000
F0.10000000000000001
I7
I10
I300
tp284
(dp285
g4
F0.99999999999999989
sg5
F0.99999999999999989
sg6
F0.99999999999999989
sg7
F0.99999999999999989
ss(F0.00029999999999999997
I1000
F0.75
I5
I15
I300
tp286
(dp287
g4
F0.99999999999999989
sg5
F0.99999999999999989
sg6
F0.99999999999999989
sg7
F0.99999999999999989
ss(F0.00029999999999999997
I500
F0.29999999999999999
I3
I15
I300
tp288
(dp289
g4
F0.99999999999999989
sg5
F0.99999999999999989
sg6
F0.99999999999999989
sg7
F0.99999999999999989
ss(F0.00029999999999999997
I800
F0.75
I2
I15
I300
tp290
(dp291
g4
F0.99999999999999989
sg5
F0.99999999999999989
sg6
F0.99999999999999989
sg7
F0.99999999999999989
ss(F0.00029999999999999997
I500
F0.75
I10
I15
I300
tp292
(dp293
g4
F0.99999999999999989
sg5
F0.99999999999999989
sg6
F0.99999999999999989
sg7
F0.99999999999999989
ss(F0.00029999999999999997
I500
F0.75
I10
I7
I300
tp294
(dp295
g4
F0.99999999999999989
sg5
F0.99999999999999989
sg6
F0.99999999999999989
sg7
F0.99999999999999989
ss(F0.00029999999999999997
I1000
F0.10000000000000001
I7
I5
I300
tp296
(dp297
g4
F0.99951219512195111
sg5
F0.99999999999999989
sg6
F0.99890109890109879
sg7
F0.99944751381215458
ss(F0.00029999999999999997
I1200
F0.5
I2
I7
I300
tp298
(dp299
g4
F0.99999999999999989
sg5
F0.99999999999999989
sg6
F0.99999999999999989
sg7
F0.99999999999999989
ss(F0.00029999999999999997
I800
F0.90000000000000002
I2
I20
I300
tp300
(dp301
g4
F0.99999999999999989
sg5
F0.99999999999999989
sg6
F0.99999999999999989
sg7
F0.99999999999999989
ss(F0.00029999999999999997
I1200
F0.10000000000000001
I3
I15
I300
tp302
(dp303
g4
F0.99999999999999989
sg5
F0.99999999999999989
sg6
F0.99999999999999989
sg7
F0.99999999999999989
ss(F0.00029999999999999997
I800
F0.75
I10
I5
I300
tp304
(dp305
g4
F0.8243902439024392
sg5
F0.59999999999999998
sg6
F0.59999999999999998
sg7
F0.59999999999999998
ss(F0.00029999999999999997
I1200
F0.5
I5
I5
I300
tp306
(dp307
g4
F0.99999999999999989
sg5
F0.99999999999999989
sg6
F0.99999999999999989
sg7
F0.99999999999999989
ss(F0.00029999999999999997
I300
F0.5
I7
I7
I300
tp308
(dp309
g4
F0.99951219512195111
sg5
F0.99888888888888872
sg6
F0.99999999999999989
sg7
F0.99944134078212277
ss(F0.00029999999999999997
I1000
F0.75
I7
I5
I300
tp310
(dp311
g4
F0.99999999999999989
sg5
F0.99999999999999989
sg6
F0.99999999999999989
sg7
F0.99999999999999989
ss(F0.00029999999999999997
I300
F0.5
I2
I7
I300
tp312
(dp313
g4
F0.97024390243902425
sg5
F0.93222222222222206
sg6
F0.99999999999999989
sg7
F0.95012235098573339
ss(F0.00029999999999999997
I500
F0.29999999999999999
I2
I20
I300
tp314
(dp315
g4
F0.99999999999999989
sg5
F0.99999999999999989
sg6
F0.99999999999999989
sg7
F0.99999999999999989
ss(F0.00029999999999999997
I800
F0.75
I7
I5
I300
tp316
(dp317
g4
F0.99999999999999989
sg5
F0.99999999999999989
sg6
F0.99999999999999989
sg7
F0.99999999999999989
ss(F0.00029999999999999997
I500
F0.90000000000000002
I7
I5
I300
tp318
(dp319
g4
F0.99317073170731696
sg5
F0.98444444444444434
sg6
F0.99999999999999989
sg7
F0.99156626506024081
ss(F0.00029999999999999997
I300
F0.90000000000000002
I7
I10
I300
tp320
(dp321
g4
F0.99853658536585355
sg5
F0.99666666666666648
sg6
F0.99999999999999989
sg7
F0.99830508474576252
ss(F0.00029999999999999997
I1000
F0.75
I3
I15
I300
tp322
(dp323
g4
F0.99999999999999989
sg5
F0.99999999999999989
sg6
F0.99999999999999989
sg7
F0.99999999999999989
ss(F0.00029999999999999997
I1000
F0.75
I3
I20
I300
tp324
(dp325
g4
F0.99999999999999989
sg5
F0.99999999999999989
sg6
F0.99999999999999989
sg7
F0.99999999999999989
ss(F0.00029999999999999997
I300
F0.75
I3
I7
I300
tp326
(dp327
g4
F0.96975609756097547
sg5
F0.931111111111111
sg6
F0.99999999999999989
sg7
F0.95952142914885441
ss(F0.00029999999999999997
I800
F0.29999999999999999
I2
I10
I300
tp328
(dp329
g4
F0.99999999999999989
sg5
F0.99999999999999989
sg6
F0.99999999999999989
sg7
F0.99999999999999989
ss(F0.00029999999999999997
I500
F0.75
I2
I7
I300
tp330
(dp331
g4
F0.99999999999999989
sg5
F0.99999999999999989
sg6
F0.99999999999999989
sg7
F0.99999999999999989
ss(F0.00029999999999999997
I500
F0.5
I10
I10
I300
tp332
(dp333
g4
F0.99999999999999989
sg5
F0.99999999999999989
sg6
F0.99999999999999989
sg7
F0.99999999999999989
ss(F0.00029999999999999997
I1200
F0.5
I10
I7
I300
tp334
(dp335
g4
F0.95609756097560961
sg5
F0.89999999999999991
sg6
F0.89999999999999991
sg7
F0.89999999999999991
ss(F0.00029999999999999997
I1200
F0.10000000000000001
I7
I5
I300
tp336
(dp337
g4
F0.99999999999999989
sg5
F0.99999999999999989
sg6
F0.99999999999999989
sg7
F0.99999999999999989
ss(F0.00029999999999999997
I800
F0.75
I2
I5
I300
tp338
(dp339
g4
F0.99999999999999989
sg5
F0.99999999999999989
sg6
F0.99999999999999989
sg7
F0.99999999999999989
ss(F0.00029999999999999997
I500
F0.29999999999999999
I7
I15
I300
tp340
(dp341
g4
F0.99999999999999989
sg5
F0.99999999999999989
sg6
F0.99999999999999989
sg7
F0.99999999999999989
ss(F0.00029999999999999997
I1200
F0.75
I7
I5
I300
tp342
(dp343
g4
F0.95609756097560972
sg5
F0.89999999999999991
sg6
F0.89999999999999991
sg7
F0.89999999999999991
ss(F0.00029999999999999997
I1200
F0.75
I7
I20
I300
tp344
(dp345
g4
F0.99999999999999989
sg5
F0.99999999999999989
sg6
F0.99999999999999989
sg7
F0.99999999999999989
ss(F0.00029999999999999997
I500
F0.10000000000000001
I10
I10
I300
tp346
(dp347
g4
F0.99999999999999989
sg5
F0.99999999999999989
sg6
F0.99999999999999989
sg7
F0.99999999999999989
ss(F0.00029999999999999997
I800
F0.5
I3
I15
I300
tp348
(dp349
g4
F0.99999999999999989
sg5
F0.99999999999999989
sg6
F0.99999999999999989
sg7
F0.99999999999999989
ss(F0.00029999999999999997
I1000
F0.75
I2
I10
I300
tp350
(dp351
g4
F0.99999999999999989
sg5
F0.99999999999999989
sg6
F0.99999999999999989
sg7
F0.99999999999999989
ss(F0.00029999999999999997
I1200
F0.29999999999999999
I10
I20
I300
tp352
(dp353
g4
F0.99999999999999989
sg5
F0.99999999999999989
sg6
F0.99999999999999989
sg7
F0.99999999999999989
ss(F0.00029999999999999997
I800
F0.10000000000000001
I7
I7
I300
tp354
(dp355
g4
F0.99999999999999989
sg5
F0.99999999999999989
sg6
F0.99999999999999989
sg7
F0.99999999999999989
ss(F0.00029999999999999997
I1000
F0.29999999999999999
I7
I10
I300
tp356
(dp357
g4
F0.99999999999999989
sg5
F0.99999999999999989
sg6
F0.99999999999999989
sg7
F0.99999999999999989
ss(F0.00029999999999999997
I1200
F0.90000000000000002
I10
I5
I300
tp358
(dp359
g4
F0.86829268292682926
sg5
F0.69999999999999996
sg6
F0.69999999999999996
sg7
F0.69999999999999996
ss(F0.00029999999999999997
I800
F0.5
I7
I10
I300
tp360
(dp361
g4
F0.99999999999999989
sg5
F0.99999999999999989
sg6
F0.99999999999999989
sg7
F0.99999999999999989
ss(F0.00029999999999999997
I800
F0.5
I2
I15
I300
tp362
(dp363
g4
F0.99999999999999989
sg5
F0.99999999999999989
sg6
F0.99999999999999989
sg7
F0.99999999999999989
ss(F0.00029999999999999997
I500
F0.75
I10
I20
I300
tp364
(dp365
g4
F0.99999999999999989
sg5
F0.99999999999999989
sg6
F0.99999999999999989
sg7
F0.99999999999999989
ss(F0.00029999999999999997
I500
F0.10000000000000001
I3
I10
I300
tp366
(dp367
g4
F0.99999999999999989
sg5
F0.99999999999999989
sg6
F0.99999999999999989
sg7
F0.99999999999999989
ss(F0.00029999999999999997
I1200
F0.5
I10
I10
I300
tp368
(dp369
g4
F0.95609756097560972
sg5
F0.89999999999999991
sg6
F0.89999999999999991
sg7
F0.89999999999999991
ss(F0.00029999999999999997
I300
F0.10000000000000001
I2
I7
I300
tp370
(dp371
g4
F0.99999999999999989
sg5
F0.99999999999999989
sg6
F0.99999999999999989
sg7
F0.99999999999999989
ss(F0.00029999999999999997
I500
F0.90000000000000002
I7
I10
I300
tp372
(dp373
g4
F0.99999999999999989
sg5
F0.99999999999999989
sg6
F0.99999999999999989
sg7
F0.99999999999999989
ss(F0.00029999999999999997
I300
F0.29999999999999999
I10
I7
I300
tp374
(dp375
g4
F0.99999999999999989
sg5
F0.99999999999999989
sg6
F0.99999999999999989
sg7
F0.99999999999999989
ss(F0.00029999999999999997
I1000
F0.5
I7
I15
I300
tp376
(dp377
g4
F0.99999999999999989
sg5
F0.99999999999999989
sg6
F0.99999999999999989
sg7
F0.99999999999999989
ss(F0.00029999999999999997
I1000
F0.90000000000000002
I5
I15
I300
tp378
(dp379
g4
F0.99999999999999989
sg5
F0.99999999999999989
sg6
F0.99999999999999989
sg7
F0.99999999999999989
ss(F0.00029999999999999997
I800
F0.90000000000000002
I7
I10
I300
tp380
(dp381
g4
F0.99999999999999989
sg5
F0.99999999999999989
sg6
F0.99999999999999989
sg7
F0.99999999999999989
ss(F0.00029999999999999997
I1000
F0.29999999999999999
I3
I20
I300
tp382
(dp383
g4
F0.99999999999999989
sg5
F0.99999999999999989
sg6
F0.99999999999999989
sg7
F0.99999999999999989
ss(F0.00029999999999999997
I1200
F0.10000000000000001
I3
I5
I300
tp384
(dp385
g4
F0.99999999999999989
sg5
F0.99999999999999989
sg6
F0.99999999999999989
sg7
F0.99999999999999989
ss(F0.00029999999999999997
I1000
F0.29999999999999999
I10
I10
I300
tp386
(dp387
g4
F0.99999999999999989
sg5
F0.99999999999999989
sg6
F0.99999999999999989
sg7
F0.99999999999999989
ss(F0.00029999999999999997
I1200
F0.5
I3
I20
I300
tp388
(dp389
g4
F0.99999999999999989
sg5
F0.99999999999999989
sg6
F0.99999999999999989
sg7
F0.99999999999999989
ss(F0.00029999999999999997
I800
F0.10000000000000001
I5
I15
I300
tp390
(dp391
g4
F0.99999999999999989
sg5
F0.99999999999999989
sg6
F0.99999999999999989
sg7
F0.99999999999999989
ss(F0.00029999999999999997
I300
F0.29999999999999999
I10
I5
I300
tp392
(dp393
g4
F0.64878048780487818
sg5
F0.20000000000000001
sg6
F0.20000000000000001
sg7
F0.20000000000000001
ss(F0.00029999999999999997
I800
F0.29999999999999999
I10
I10
I300
tp394
(dp395
g4
F0.99999999999999989
sg5
F0.99999999999999989
sg6
F0.99999999999999989
sg7
F0.99999999999999989
ss(F0.00029999999999999997
I300
F0.10000000000000001
I7
I15
I300
tp396
(dp397
g4
F0.99999999999999989
sg5
F0.99999999999999989
sg6
F0.99999999999999989
sg7
F0.99999999999999989
ss(F0.00029999999999999997
I1000
F0.75
I5
I7
I300
tp398
(dp399
g4
F0.99999999999999989
sg5
F0.99999999999999989
sg6
F0.99999999999999989
sg7
F0.99999999999999989
ss(F0.00029999999999999997
I500
F0.29999999999999999
I2
I10
I300
tp400
(dp401
g4
F0.99999999999999989
sg5
F0.99999999999999989
sg6
F0.99999999999999989
sg7
F0.99999999999999989
ss(F0.00029999999999999997
I1200
F0.90000000000000002
I3
I20
I300
tp402
(dp403
g4
F0.99999999999999989
sg5
F0.99999999999999989
sg6
F0.99999999999999989
sg7
F0.99999999999999989
ss(F0.00029999999999999997
I800
F0.90000000000000002
I10
I10
I300
tp404
(dp405
g4
F0.99999999999999989
sg5
F0.99999999999999989
sg6
F0.99999999999999989
sg7
F0.99999999999999989
ss(F0.00029999999999999997
I500
F0.5
I2
I5
I300
tp406
(dp407
g4
F0.99853658536585355
sg5
F0.99666666666666659
sg6
F0.99999999999999989
sg7
F0.99830508474576263
ss(F0.00029999999999999997
I300
F0.29999999999999999
I2
I7
I300
tp408
(dp409
g4
F0.9970731707317072
sg5
F0.99333333333333329
sg6
F0.99999999999999989
sg7
F0.99660367722165477
ss(F0.00029999999999999997
I300
F0.5
I5
I15
I300
tp410
(dp411
g4
F0.99999999999999989
sg5
F0.99999999999999989
sg6
F0.99999999999999989
sg7
F0.99999999999999989
ss(F0.00029999999999999997
I500
F0.10000000000000001
I3
I7
I300
tp412
(dp413
g4
F0.99999999999999989
sg5
F0.99999999999999989
sg6
F0.99999999999999989
sg7
F0.99999999999999989
ss(F0.00029999999999999997
I1000
F0.90000000000000002
I7
I20
I300
tp414
(dp415
g4
F0.99999999999999989
sg5
F0.99999999999999989
sg6
F0.99999999999999989
sg7
F0.99999999999999989
ss(F0.00029999999999999997
I1000
F0.10000000000000001
I2
I20
I300
tp416
(dp417
g4
F0.99999999999999989
sg5
F0.99999999999999989
sg6
F0.99999999999999989
sg7
F0.99999999999999989
ss(F0.00029999999999999997
I500
F0.29999999999999999
I5
I10
I300
tp418
(dp419
g4
F0.99999999999999989
sg5
F0.99999999999999989
sg6
F0.99999999999999989
sg7
F0.99999999999999989
ss(F0.00029999999999999997
I1200
F0.75
I3
I7
I300
tp420
(dp421
g4
F0.99999999999999989
sg5
F0.99999999999999989
sg6
F0.99999999999999989
sg7
F0.99999999999999989
ss(F0.00029999999999999997
I1200
F0.90000000000000002
I7
I20
I300
tp422
(dp423
g4
F0.99999999999999989
sg5
F0.99999999999999989
sg6
F0.99999999999999989
sg7
F0.99999999999999989
ss(F0.00029999999999999997
I500
F0.75
I7
I5
I300
tp424
(dp425
g4
F0.95609756097560972
sg5
F0.89999999999999991
sg6
F0.89999999999999991
sg7
F0.89999999999999991
ss(F0.00029999999999999997
I300
F0.29999999999999999
I2
I5
I300
tp426
(dp427
g4
F0.99658536585365842
sg5
F0.99222222222222212
sg6
F0.99999999999999989
sg7
F0.99602553870710298
ss(F0.00029999999999999997
I500
F0.75
I3
I5
I300
tp428
(dp429
g4
F0.99804878048780477
sg5
F0.99555555555555542
sg6
F0.99999999999999989
sg7
F0.99772727272727257
ss(F0.00029999999999999997
I1000
F0.75
I3
I7
I300
tp430
(dp431
g4
F0.99999999999999989
sg5
F0.99999999999999989
sg6
F0.99999999999999989
sg7
F0.99999999999999989
ss(F0.00029999999999999997
I300
F0.5
I3
I15
I300
tp432
(dp433
g4
F0.99999999999999989
sg5
F0.99999999999999989
sg6
F0.99999999999999989
sg7
F0.99999999999999989
ss(F0.00029999999999999997
I500
F0.75
I5
I20
I300
tp434
(dp435
g4
F0.99999999999999989
sg5
F0.99999999999999989
sg6
F0.99999999999999989
sg7
F0.99999999999999989
ss(F0.00029999999999999997
I1000
F0.29999999999999999
I7
I5
I300
tp436
(dp437
g4
F0.99999999999999989
sg5
F0.99999999999999989
sg6
F0.99999999999999989
sg7
F0.99999999999999989
ss(F0.00029999999999999997
I1200
F0.75
I7
I10
I300
tp438
(dp439
g4
F0.99999999999999989
sg5
F0.99999999999999989
sg6
F0.99999999999999989
sg7
F0.99999999999999989
ss(F0.00029999999999999997
I300
F0.5
I10
I7
I300
tp440
(dp441
g4
F0.82585365853658543
sg5
F0.60333333333333328
sg6
F0.69999999999999996
sg7
F0.6064516129032258
ss(F0.00029999999999999997
I1000
F0.29999999999999999
I2
I5
I300
tp442
(dp443
g4
F0.99999999999999989
sg5
F0.99999999999999989
sg6
F0.99999999999999989
sg7
F0.99999999999999989
ss(F0.00029999999999999997
I300
F0.29999999999999999
I2
I10
I300
tp444
(dp445
g4
F0.99951219512195111
sg5
F0.99888888888888883
sg6
F0.99999999999999989
sg7
F0.99944134078212288
ss(F0.00029999999999999997
I500
F0.29999999999999999
I3
I20
I300
tp446
(dp447
g4
F0.99999999999999989
sg5
F0.99999999999999989
sg6
F0.99999999999999989
sg7
F0.99999999999999989
ss(F0.00029999999999999997
I1200
F0.29999999999999999
I2
I20
I300
tp448
(dp449
g4
F0.99999999999999989
sg5
F0.99999999999999989
sg6
F0.99999999999999989
sg7
F0.99999999999999989
ss(F0.00029999999999999997
I1000
F0.75
I3
I5
I300
tp450
(dp451
g4
F0.99999999999999989
sg5
F0.99999999999999989
sg6
F0.99999999999999989
sg7
F0.99999999999999989
ss(F0.00029999999999999997
I1200
F0.10000000000000001
I10
I15
I300
tp452
(dp453
g4
F0.99999999999999989
sg5
F0.99999999999999989
sg6
F0.99999999999999989
sg7
F0.99999999999999989
ss(F0.00029999999999999997
I500
F0.75
I7
I15
I300
tp454
(dp455
g4
F0.99999999999999989
sg5
F0.99999999999999989
sg6
F0.99999999999999989
sg7
F0.99999999999999989
ss(F0.00029999999999999997
I300
F0.5
I7
I20
I300
tp456
(dp457
g4
F0.99999999999999989
sg5
F0.99999999999999989
sg6
F0.99999999999999989
sg7
F0.99999999999999989
ss(F0.00029999999999999997
I1000
F0.29999999999999999
I2
I20
I300
tp458
(dp459
g4
F0.99999999999999989
sg5
F0.99999999999999989
sg6
F0.99999999999999989
sg7
F0.99999999999999989
ss(F0.00029999999999999997
I800
F0.90000000000000002
I7
I7
I300
tp460
(dp461
g4
F0.99999999999999989
sg5
F0.99999999999999989
sg6
F0.99999999999999989
sg7
F0.99999999999999989
ss(F0.00029999999999999997
I500
F0.5
I3
I10
I300
tp462
(dp463
g4
F0.99999999999999989
sg5
F0.99999999999999989
sg6
F0.99999999999999989
sg7
F0.99999999999999989
ss(F0.00029999999999999997
I300
F0.5
I3
I7
I300
tp464
(dp465
g4
F0.98243902439024378
sg5
F0.95999999999999985
sg6
F0.99999999999999989
sg7
F0.97559501033136908
ss(F0.00029999999999999997
I500
F0.90000000000000002
I3
I15
I300
tp466
(dp467
g4
F0.99999999999999989
sg5
F0.99999999999999989
sg6
F0.99999999999999989
sg7
F0.99999999999999989
ss(F0.00029999999999999997
I1200
F0.90000000000000002
I2
I7
I300
tp468
(dp469
g4
F0.99999999999999989
sg5
F0.99999999999999989
sg6
F0.99999999999999989
sg7
F0.99999999999999989
ss(F0.00029999999999999997
I1200
F0.29999999999999999
I5
I7
I300
tp470
(dp471
g4
F0.99999999999999989
sg5
F0.99999999999999989
sg6
F0.99999999999999989
sg7
F0.99999999999999989
ss(F0.00029999999999999997
I1000
F0.10000000000000001
I3
I5
I300
tp472
(dp473
g4
F0.99999999999999989
sg5
F0.99999999999999989
sg6
F0.99999999999999989
sg7
F0.99999999999999989
ss(F0.00029999999999999997
I500
F0.10000000000000001
I2
I15
I300
tp474
(dp475
g4
F0.99999999999999989
sg5
F0.99999999999999989
sg6
F0.99999999999999989
sg7
F0.99999999999999989
ss(F0.00029999999999999997
I300
F0.10000000000000001
I2
I15
I300
tp476
(dp477
g4
F0.99999999999999989
sg5
F0.99999999999999989
sg6
F0.99999999999999989
sg7
F0.99999999999999989
ss(F0.00029999999999999997
I500
F0.29999999999999999
I3
I7
I300
tp478
(dp479
g4
F0.99951219512195111
sg5
F0.99888888888888883
sg6
F0.99999999999999989
sg7
F0.99944134078212288
ss(F0.00029999999999999997
I500
F0.10000000000000001
I10
I5
I300
tp480
(dp481
g4
F0.86829268292682926
sg5
F0.69999999999999996
sg6
F0.69999999999999996
sg7
F0.69999999999999996
ss(F0.00029999999999999997
I1200
F0.10000000000000001
I3
I7
I300
tp482
(dp483
g4
F0.99999999999999989
sg5
F0.99999999999999989
sg6
F0.99999999999999989
sg7
F0.99999999999999989
ss(F0.00029999999999999997
I1000
F0.75
I5
I10
I300
tp484
(dp485
g4
F0.99999999999999989
sg5
F0.99999999999999989
sg6
F0.99999999999999989
sg7
F0.99999999999999989
ss(F0.00029999999999999997
I300
F0.90000000000000002
I3
I10
I300
tp486
(dp487
g4
F0.97707317073170719
sg5
F0.94777777777777772
sg6
F0.99999999999999989
sg7
F0.97161738155203536
ss(F0.00029999999999999997
I300
F0.5
I7
I15
I300
tp488
(dp489
g4
F0.99999999999999989
sg5
F0.99999999999999989
sg6
F0.99999999999999989
sg7
F0.99999999999999989
ss(F0.00029999999999999997
I300
F0.10000000000000001
I5
I7
I300
tp490
(dp491
g4
F0.99999999999999989
sg5
F0.99999999999999989
sg6
F0.99999999999999989
sg7
F0.99999999999999989
ss(F0.00029999999999999997
I500
F0.90000000000000002
I2
I5
I300
tp492
(dp493
g4
F0.97951219512195109
sg5
F0.95333333333333325
sg6
F0.99999999999999989
sg7
F0.97412209103605585
ss(F0.00029999999999999997
I300
F0.90000000000000002
I2
I20
I300
tp494
(dp495
g4
F0.99999999999999989
sg5
F0.99999999999999989
sg6
F0.99999999999999989
sg7
F0.99999999999999989
ss(F0.00029999999999999997
I1200
F0.90000000000000002
I5
I5
I300
tp496
(dp497
g4
F0.99999999999999989
sg5
F0.99999999999999989
sg6
F0.99999999999999989
sg7
F0.99999999999999989
ss(F0.00029999999999999997
I500
F0.90000000000000002
I3
I10
I300
tp498
(dp499
g4
F0.99999999999999989
sg5
F0.99999999999999989
sg6
F0.99999999999999989
sg7
F0.99999999999999989
ss(F0.00029999999999999997
I300
F0.75
I7
I15
I300
tp500
(dp501
g4
F0.99999999999999989
sg5
F0.99999999999999989
sg6
F0.99999999999999989
sg7
F0.99999999999999989
ss(F0.00029999999999999997
I300
F0.75
I5
I7
I300
tp502
(dp503
g4
F0.98731707317073159
sg5
F0.97111111111111104
sg6
F0.99999999999999989
sg7
F0.98491297826841584
ss(F0.00029999999999999997
I300
F0.29999999999999999
I7
I20
I300
tp504
(dp505
g4
F0.99999999999999989
sg5
F0.99999999999999989
sg6
F0.99999999999999989
sg7
F0.99999999999999989
ss(F0.00029999999999999997
I1200
F0.5
I10
I15
I300
tp506
(dp507
g4
F0.99999999999999989
sg5
F0.99999999999999989
sg6
F0.99999999999999989
sg7
F0.99999999999999989
ss(F0.00029999999999999997
I800
F0.75
I7
I7
I300
tp508
(dp509
g4
F0.95609756097560972
sg5
F0.89999999999999991
sg6
F0.89999999999999991
sg7
F0.89999999999999991
ss(F0.00029999999999999997
I500
F0.5
I7
I10
I300
tp510
(dp511
g4
F0.99999999999999989
sg5
F0.99999999999999989
sg6
F0.99999999999999989
sg7
F0.99999999999999989
ss(F0.00029999999999999997
I800
F0.90000000000000002
I10
I5
I300
tp512
(dp513
g4
F0.91219512195121943
sg5
F0.79999999999999993
sg6
F0.79999999999999993
sg7
F0.79999999999999993
ss(F0.00029999999999999997
I1200
F0.75
I3
I15
I300
tp514
(dp515
g4
F0.99999999999999989
sg5
F0.99999999999999989
sg6
F0.99999999999999989
sg7
F0.99999999999999989
ss(F0.00029999999999999997
I300
F0.10000000000000001
I5
I20
I300
tp516
(dp517
g4
F0.99999999999999989
sg5
F0.99999999999999989
sg6
F0.99999999999999989
sg7
F0.99999999999999989
ss(F0.00029999999999999997
I1000
F0.29999999999999999
I3
I15
I300
tp518
(dp519
g4
F0.99999999999999989
sg5
F0.99999999999999989
sg6
F0.99999999999999989
sg7
F0.99999999999999989
ss(F0.00029999999999999997
I1000
F0.90000000000000002
I2
I5
I300
tp520
(dp521
g4
F0.99999999999999989
sg5
F0.99999999999999989
sg6
F0.99999999999999989
sg7
F0.99999999999999989
ss(F0.00029999999999999997
I1200
F0.5
I5
I15
I300
tp522
(dp523
g4
F0.99999999999999989
sg5
F0.99999999999999989
sg6
F0.99999999999999989
sg7
F0.99999999999999989
ss(F0.00029999999999999997
I1200
F0.10000000000000001
I7
I10
I300
tp524
(dp525
g4
F0.99999999999999989
sg5
F0.99999999999999989
sg6
F0.99999999999999989
sg7
F0.99999999999999989
ss(F0.00029999999999999997
I1200
F0.90000000000000002
I3
I15
I300
tp526
(dp527
g4
F0.99999999999999989
sg5
F0.99999999999999989
sg6
F0.99999999999999989
sg7
F0.99999999999999989
ss(F0.00029999999999999997
I500
F0.29999999999999999
I10
I10
I300
tp528
(dp529
g4
F0.95609756097560972
sg5
F0.89999999999999991
sg6
F0.89999999999999991
sg7
F0.89999999999999991
ss(F0.00029999999999999997
I300
F0.5
I10
I10
I300
tp530
(dp531
g4
F0.99999999999999989
sg5
F0.99999999999999989
sg6
F0.99999999999999989
sg7
F0.99999999999999989
ss(F0.00029999999999999997
I800
F0.75
I7
I15
I300
tp532
(dp533
g4
F0.99999999999999989
sg5
F0.99999999999999989
sg6
F0.99999999999999989
sg7
F0.99999999999999989
ss(F0.00029999999999999997
I800
F0.75
I3
I7
I300
tp534
(dp535
g4
F0.99999999999999989
sg5
F0.99999999999999989
sg6
F0.99999999999999989
sg7
F0.99999999999999989
ss(F0.00029999999999999997
I500
F0.29999999999999999
I2
I15
I300
tp536
(dp537
g4
F0.99999999999999989
sg5
F0.99999999999999989
sg6
F0.99999999999999989
sg7
F0.99999999999999989
ss(F0.00029999999999999997
I800
F0.10000000000000001
I5
I20
I300
tp538
(dp539
g4
F0.99999999999999989
sg5
F0.99999999999999989
sg6
F0.99999999999999989
sg7
F0.99999999999999989
ss(F0.00029999999999999997
I1200
F0.29999999999999999
I10
I10
I300
tp540
(dp541
g4
F0.99999999999999989
sg5
F0.99999999999999989
sg6
F0.99999999999999989
sg7
F0.99999999999999989
ss(F0.00029999999999999997
I300
F0.90000000000000002
I5
I5
I300
tp542
(dp543
g4
F0.87121951219512195
sg5
F0.70666666666666655
sg6
F0.79999999999999993
sg7
F0.73641918108137383
ss(F0.00029999999999999997
I1000
F0.75
I3
I10
I300
tp544
(dp545
g4
F0.99999999999999989
sg5
F0.99999999999999989
sg6
F0.99999999999999989
sg7
F0.99999999999999989
ss(F0.00029999999999999997
I1000
F0.29999999999999999
I10
I20
I300
tp546
(dp547
g4
F0.99999999999999989
sg5
F0.99999999999999989
sg6
F0.99999999999999989
sg7
F0.99999999999999989
ss(F0.00029999999999999997
I800
F0.29999999999999999
I3
I5
I300
tp548
(dp549
g4
F0.99999999999999989
sg5
F0.99999999999999989
sg6
F0.99999999999999989
sg7
F0.99999999999999989
ss(F0.00029999999999999997
I1200
F0.10000000000000001
I10
I7
I300
tp550
(dp551
g4
F0.95609756097560972
sg5
F0.89999999999999991
sg6
F0.89999999999999991
sg7
F0.89999999999999991
ss(F0.00029999999999999997
I1000
F0.75
I7
I15
I300
tp552
(dp553
g4
F0.99999999999999989
sg5
F0.99999999999999989
sg6
F0.99999999999999989
sg7
F0.99999999999999989
ss(F0.00029999999999999997
I1000
F0.5
I7
I7
I300
tp554
(dp555
g4
F0.99999999999999989
sg5
F0.99999999999999989
sg6
F0.99999999999999989
sg7
F0.99999999999999989
ss(F0.00029999999999999997
I1000
F0.75
I10
I15
I300
tp556
(dp557
g4
F0.99999999999999989
sg5
F0.99999999999999989
sg6
F0.99999999999999989
sg7
F0.99999999999999989
ss(F0.00029999999999999997
I1200
F0.5
I7
I7
I300
tp558
(dp559
g4
F0.95609756097560961
sg5
F0.89999999999999991
sg6
F0.89999999999999991
sg7
F0.89999999999999991
ss(F0.00029999999999999997
I800
F0.29999999999999999
I5
I20
I300
tp560
(dp561
g4
F0.99999999999999989
sg5
F0.99999999999999989
sg6
F0.99999999999999989
sg7
F0.99999999999999989
ss(F0.00029999999999999997
I500
F0.10000000000000001
I7
I10
I300
tp562
(dp563
g4
F0.99999999999999989
sg5
F0.99999999999999989
sg6
F0.99999999999999989
sg7
F0.99999999999999989
ss(F0.00029999999999999997
I300
F0.5
I3
I5
I300
tp564
(dp565
g4
F0.95170731707317069
sg5
F0.8899999999999999
sg6
F0.89999999999999991
sg7
F0.89473684210526305
ss(F0.00029999999999999997
I800
F0.10000000000000001
I5
I7
I300
tp566
(dp567
g4
F0.99999999999999989
sg5
F0.99999999999999989
sg6
F0.99999999999999989
sg7
F0.99999999999999989
ss(F0.00029999999999999997
I300
F0.10000000000000001
I5
I10
I300
tp568
(dp569
g4
F0.99999999999999989
sg5
F0.99999999999999989
sg6
F0.99999999999999989
sg7
F0.99999999999999989
ss(F0.00029999999999999997
I1200
F0.5
I2
I10
I300
tp570
(dp571
g4
F0.99999999999999989
sg5
F0.99999999999999989
sg6
F0.99999999999999989
sg7
F0.99999999999999989
ss(F0.00029999999999999997
I800
F0.5
I10
I20
I300
tp572
(dp573
g4
F0.99999999999999989
sg5
F0.99999999999999989
sg6
F0.99999999999999989
sg7
F0.99999999999999989
ss(F0.00029999999999999997
I1000
F0.10000000000000001
I3
I7
I300
tp574
(dp575
g4
F0.99999999999999989
sg5
F0.99999999999999989
sg6
F0.99999999999999989
sg7
F0.99999999999999989
ss(F0.00029999999999999997
I300
F0.90000000000000002
I2
I10
I300
tp576
(dp577
g4
F0.97609756097560962
sg5
F0.9455555555555557
sg6
F0.99999999999999989
sg7
F0.97142204962113188
ss(F0.00029999999999999997
I1000
F0.90000000000000002
I3
I7
I300
tp578
(dp579
g4
F0.99999999999999989
sg5
F0.99999999999999989
sg6
F0.99999999999999989
sg7
F0.99999999999999989
ss(F0.00029999999999999997
I1000
F0.75
I10
I5
I300
tp580
(dp581
g4
F0.95609756097560961
sg5
F0.89999999999999991
sg6
F0.89999999999999991
sg7
F0.89999999999999991
ss(F0.00029999999999999997
I300
F0.90000000000000002
I10
I5
I300
tp582
(dp583
g4
F0.64878048780487818
sg5
F0.20000000000000001
sg6
F0.20000000000000001
sg7
F0.20000000000000001
ss(F0.00029999999999999997
I500
F0.5
I10
I15
I300
tp584
(dp585
g4
F0.99999999999999989
sg5
F0.99999999999999989
sg6
F0.99999999999999989
sg7
F0.99999999999999989
ss(F0.00029999999999999997
I800
F0.29999999999999999
I7
I15
I300
tp586
(dp587
g4
F0.99999999999999989
sg5
F0.99999999999999989
sg6
F0.99999999999999989
sg7
F0.99999999999999989
ss(F0.00029999999999999997
I500
F0.29999999999999999
I5
I20
I300
tp588
(dp589
g4
F0.99999999999999989
sg5
F0.99999999999999989
sg6
F0.99999999999999989
sg7
F0.99999999999999989
ss(F0.00029999999999999997
I1000
F0.10000000000000001
I5
I5
I300
tp590
(dp591
g4
F0.99999999999999989
sg5
F0.99999999999999989
sg6
F0.99999999999999989
sg7
F0.99999999999999989
ss(F0.00029999999999999997
I800
F0.5
I10
I10
I300
tp592
(dp593
g4
F0.99999999999999989
sg5
F0.99999999999999989
sg6
F0.99999999999999989
sg7
F0.99999999999999989
ss(F0.00029999999999999997
I300
F0.29999999999999999
I2
I15
I300
tp594
(dp595
g4
F0.99999999999999989
sg5
F0.99999999999999989
sg6
F0.99999999999999989
sg7
F0.99999999999999989
ss(F0.00029999999999999997
I500
F0.5
I2
I20
I300
tp596
(dp597
g4
F0.99999999999999989
sg5
F0.99999999999999989
sg6
F0.99999999999999989
sg7
F0.99999999999999989
ss(F0.00029999999999999997
I800
F0.29999999999999999
I3
I10
I300
tp598
(dp599
g4
F0.99999999999999989
sg5
F0.99999999999999989
sg6
F0.99999999999999989
sg7
F0.99999999999999989
ss(F0.00029999999999999997
I1000
F0.29999999999999999
I5
I20
I300
tp600
(dp601
g4
F0.99999999999999989
sg5
F0.99999999999999989
sg6
F0.99999999999999989
sg7
F0.99999999999999989
ss(F0.00029999999999999997
I300
F0.75
I10
I15
I300
tp602
(dp603
g4
F0.99999999999999989
sg5
F0.99999999999999989
sg6
F0.99999999999999989
sg7
F0.99999999999999989
ss(F0.00029999999999999997
I500
F0.10000000000000001
I5
I7
I300
tp604
(dp605
g4
F0.99999999999999989
sg5
F0.99999999999999989
sg6
F0.99999999999999989
sg7
F0.99999999999999989
ss(F0.00029999999999999997
I1200
F0.29999999999999999
I7
I20
I300
tp606
(dp607
g4
F0.99999999999999989
sg5
F0.99999999999999989
sg6
F0.99999999999999989
sg7
F0.99999999999999989
ss(F0.00029999999999999997
I500
F0.90000000000000002
I2
I7
I300
tp608
(dp609
g4
F0.99951219512195111
sg5
F0.99888888888888883
sg6
F0.99999999999999989
sg7
F0.99944134078212277
ss(F0.00029999999999999997
I500
F0.29999999999999999
I7
I10
I300
tp610
(dp611
g4
F0.99999999999999989
sg5
F0.99999999999999989
sg6
F0.99999999999999989
sg7
F0.99999999999999989
ss(F0.00029999999999999997
I500
F0.10000000000000001
I3
I5
I300
tp612
(dp613
g4
F0.99804878048780477
sg5
F0.99555555555555542
sg6
F0.99999999999999989
sg7
F0.99775280898876406
ss(F0.00029999999999999997
I1200
F0.75
I5
I7
I300
tp614
(dp615
g4
F0.99999999999999989
sg5
F0.99999999999999989
sg6
F0.99999999999999989
sg7
F0.99999999999999989
ss(F0.00029999999999999997
I1200
F0.90000000000000002
I2
I10
I300
tp616
(dp617
g4
F0.99999999999999989
sg5
F0.99999999999999989
sg6
F0.99999999999999989
sg7
F0.99999999999999989
ss(F0.00029999999999999997
I300
F0.75
I7
I7
I300
tp618
(dp619
g4
F0.98926829268292671
sg5
F0.9755555555555554
sg6
F0.99999999999999989
sg7
F0.98703532574452879
ss(F0.00029999999999999997
I1200
F0.10000000000000001
I5
I10
I300
tp620
(dp621
g4
F0.99999999999999989
sg5
F0.99999999999999989
sg6
F0.99999999999999989
sg7
F0.99999999999999989
ss(F0.00029999999999999997
I500
F0.5
I3
I7
I300
tp622
(dp623
g4
F0.99999999999999989
sg5
F0.99999999999999989
sg6
F0.99999999999999989
sg7
F0.99999999999999989
ss(F0.00029999999999999997
I1200
F0.90000000000000002
I3
I7
I300
tp624
(dp625
g4
F0.99999999999999989
sg5
F0.99999999999999989
sg6
F0.99999999999999989
sg7
F0.99999999999999989
ss(F0.00029999999999999997
I800
F0.90000000000000002
I10
I7
I300
tp626
(dp627
g4
F0.99999999999999989
sg5
F0.99999999999999989
sg6
F0.99999999999999989
sg7
F0.99999999999999989
ss(F0.00029999999999999997
I500
F0.90000000000000002
I2
I10
I300
tp628
(dp629
g4
F0.99999999999999989
sg5
F0.99999999999999989
sg6
F0.99999999999999989
sg7
F0.99999999999999989
ss(F0.00029999999999999997
I300
F0.10000000000000001
I10
I20
I300
tp630
(dp631
g4
F0.99999999999999989
sg5
F0.99999999999999989
sg6
F0.99999999999999989
sg7
F0.99999999999999989
ss(F0.00029999999999999997
I1200
F0.75
I10
I15
I300
tp632
(dp633
g4
F0.99999999999999989
sg5
F0.99999999999999989
sg6
F0.99999999999999989
sg7
F0.99999999999999989
ss(F0.00029999999999999997
I500
F0.90000000000000002
I7
I7
I300
tp634
(dp635
g4
F0.99999999999999989
sg5
F0.99999999999999989
sg6
F0.99999999999999989
sg7
F0.99999999999999989
ss(F0.00029999999999999997
I800
F0.90000000000000002
I5
I7
I300
tp636
(dp637
g4
F0.99999999999999989
sg5
F0.99999999999999989
sg6
F0.99999999999999989
sg7
F0.99999999999999989
ss(F0.00029999999999999997
I800
F0.75
I5
I20
I300
tp638
(dp639
g4
F0.99999999999999989
sg5
F0.99999999999999989
sg6
F0.99999999999999989
sg7
F0.99999999999999989
ss(F0.00029999999999999997
I500
F0.5
I7
I7
I300
tp640
(dp641
g4
F0.99999999999999989
sg5
F0.99999999999999989
sg6
F0.99999999999999989
sg7
F0.99999999999999989
ss(F0.00029999999999999997
I800
F0.5
I7
I7
I300
tp642
(dp643
g4
F0.99999999999999989
sg5
F0.99999999999999989
sg6
F0.99999999999999989
sg7
F0.99999999999999989
ss(F0.00029999999999999997
I800
F0.5
I3
I5
I300
tp644
(dp645
g4
F0.99999999999999989
sg5
F0.99999999999999989
sg6
F0.99999999999999989
sg7
F0.99999999999999989
ss(F0.00029999999999999997
I300
F0.75
I2
I7
I300
tp646
(dp647
g4
F0.92878048780487799
sg5
F0.84777777777777774
sg6
F0.99048152295632685
sg7
F0.88066431696513703
ss(F0.00029999999999999997
I300
F0.5
I7
I10
I300
tp648
(dp649
g4
F0.99951219512195111
sg5
F0.99888888888888883
sg6
F0.99999999999999989
sg7
F0.99944134078212288
ss(F0.00029999999999999997
I800
F0.90000000000000002
I7
I15
I300
tp650
(dp651
g4
F0.99999999999999989
sg5
F0.99999999999999989
sg6
F0.99999999999999989
sg7
F0.99999999999999989
ss(F0.00029999999999999997
I1200
F0.75
I2
I15
I300
tp652
(dp653
g4
F0.99999999999999989
sg5
F0.99999999999999989
sg6
F0.99999999999999989
sg7
F0.99999999999999989
ss(F0.00029999999999999997
I300
F0.10000000000000001
I10
I7
I300
tp654
(dp655
g4
F0.86829268292682926
sg5
F0.69999999999999996
sg6
F0.69999999999999996
sg7
F0.69999999999999996
ss(F0.00029999999999999997
I300
F0.29999999999999999
I10
I10
I300
tp656
(dp657
g4
F0.99951219512195111
sg5
F0.99888888888888872
sg6
F0.99999999999999989
sg7
F0.99944134078212277
ss(F0.00029999999999999997
I500
F0.90000000000000002
I3
I7
I300
tp658
(dp659
g4
F0.99951219512195111
sg5
F0.99888888888888883
sg6
F0.99999999999999989
sg7
F0.99944134078212277
ss(F0.00029999999999999997
I500
F0.75
I5
I7
I300
tp660
(dp661
g4
F0.99951219512195111
sg5
F0.99888888888888883
sg6
F0.99999999999999989
sg7
F0.99944134078212288
ss(F0.00029999999999999997
I800
F0.10000000000000001
I2
I10
I300
tp662
(dp663
g4
F0.99999999999999989
sg5
F0.99999999999999989
sg6
F0.99999999999999989
sg7
F0.99999999999999989
ss(F0.00029999999999999997
I300
F0.29999999999999999
I3
I20
I300
tp664
(dp665
g4
F0.99999999999999989
sg5
F0.99999999999999989
sg6
F0.99999999999999989
sg7
F0.99999999999999989
ss(F0.00029999999999999997
I800
F0.5
I7
I5
I300
tp666
(dp667
g4
F0.95609756097560972
sg5
F0.89999999999999991
sg6
F0.89999999999999991
sg7
F0.89999999999999991
ss(F0.00029999999999999997
I1000
F0.5
I7
I5
I300
tp668
(dp669
g4
F0.95609756097560972
sg5
F0.89999999999999991
sg6
F0.89999999999999991
sg7
F0.89999999999999991
ss(F0.00029999999999999997
I1200
F0.90000000000000002
I2
I5
I300
tp670
(dp671
g4
F0.99999999999999989
sg5
F0.99999999999999989
sg6
F0.99999999999999989
sg7
F0.99999999999999989
ss(F0.00029999999999999997
I500
F0.75
I2
I10
I300
tp672
(dp673
g4
F0.99999999999999989
sg5
F0.99999999999999989
sg6
F0.99999999999999989
sg7
F0.99999999999999989
ss(F0.00029999999999999997
I1200
F0.5
I7
I5
I300
tp674
(dp675
g4
F0.99999999999999989
sg5
F0.99999999999999989
sg6
F0.99999999999999989
sg7
F0.99999999999999989
ss(F0.00029999999999999997
I1000
F0.5
I2
I20
I300
tp676
(dp677
g4
F0.99999999999999989
sg5
F0.99999999999999989
sg6
F0.99999999999999989
sg7
F0.99999999999999989
ss(F0.00029999999999999997
I800
F0.10000000000000001
I5
I5
I300
tp678
(dp679
g4
F0.99999999999999989
sg5
F0.99999999999999989
sg6
F0.99999999999999989
sg7
F0.99999999999999989
ss(F0.00029999999999999997
I300
F0.5
I2
I5
I300
tp680
(dp681
g4
F0.91268292682926833
sg5
F0.80333333333333334
sg6
F0.89782608695652166
sg7
F0.83769887878074945
ss(F0.00029999999999999997
I1000
F0.90000000000000002
I5
I20
I300
tp682
(dp683
g4
F0.99999999999999989
sg5
F0.99999999999999989
sg6
F0.99999999999999989
sg7
F0.99999999999999989
ss(F0.00029999999999999997
I1000
F0.10000000000000001
I10
I5
I300
tp684
(dp685
g4
F0.86829268292682926
sg5
F0.69999999999999996
sg6
F0.69999999999999996
sg7
F0.69999999999999996
ss(F0.00029999999999999997
I500
F0.75
I3
I20
I300
tp686
(dp687
g4
F0.99999999999999989
sg5
F0.99999999999999989
sg6
F0.99999999999999989
sg7
F0.99999999999999989
ss(F0.00029999999999999997
I300
F0.90000000000000002
I10
I7
I300
tp688
(dp689
g4
F0.98780487804878037
sg5
F0.97333333333333327
sg6
F0.99888888888888883
sg7
F0.98536329972236048
ss(F0.00029999999999999997
I300
F0.29999999999999999
I3
I7
I300
tp690
(dp691
g4
F0.95121951219512191
sg5
F0.88888888888888873
sg6
F0.89999999999999991
sg7
F0.89422524170368434
ss(F0.00029999999999999997
I1200
F0.29999999999999999
I10
I7
I300
tp692
(dp693
g4
F0.99999999999999989
sg5
F0.99999999999999989
sg6
F0.99999999999999989
sg7
F0.99999999999999989
ss(F0.00029999999999999997
I300
F0.5
I5
I7
I300
tp694
(dp695
g4
F0.99951219512195111
sg5
F0.99888888888888883
sg6
F0.99999999999999989
sg7
F0.99944134078212277
ss(F0.00029999999999999997
I1200
F0.5
I3
I15
I300
tp696
(dp697
g4
F0.99999999999999989
sg5
F0.99999999999999989
sg6
F0.99999999999999989
sg7
F0.99999999999999989
ss(F0.00029999999999999997
I1200
F0.75
I2
I20
I300
tp698
(dp699
g4
F0.99999999999999989
sg5
F0.99999999999999989
sg6
F0.99999999999999989
sg7
F0.99999999999999989
ss(F0.00029999999999999997
I800
F0.5
I7
I15
I300
tp700
(dp701
g4
F0.99999999999999989
sg5
F0.99999999999999989
sg6
F0.99999999999999989
sg7
F0.99999999999999989
ss(F0.00029999999999999997
I800
F0.75
I2
I10
I300
tp702
(dp703
g4
F0.99999999999999989
sg5
F0.99999999999999989
sg6
F0.99999999999999989
sg7
F0.99999999999999989
ss(F0.00029999999999999997
I300
F0.29999999999999999
I10
I20
I300
tp704
(dp705
g4
F0.99999999999999989
sg5
F0.99999999999999989
sg6
F0.99999999999999989
sg7
F0.99999999999999989
ss(F0.00029999999999999997
I300
F0.75
I2
I15
I300
tp706
(dp707
g4
F0.99999999999999989
sg5
F0.99999999999999989
sg6
F0.99999999999999989
sg7
F0.99999999999999989
ss(F0.00029999999999999997
I800
F0.10000000000000001
I10
I20
I300
tp708
(dp709
g4
F0.99999999999999989
sg5
F0.99999999999999989
sg6
F0.99999999999999989
sg7
F0.99999999999999989
ss(F0.00029999999999999997
I1000
F0.29999999999999999
I3
I7
I300
tp710
(dp711
g4
F0.99999999999999989
sg5
F0.99999999999999989
sg6
F0.99999999999999989
sg7
F0.99999999999999989
ss(F0.00029999999999999997
I800
F0.90000000000000002
I5
I20
I300
tp712
(dp713
g4
F0.99999999999999989
sg5
F0.99999999999999989
sg6
F0.99999999999999989
sg7
F0.99999999999999989
ss(F0.00029999999999999997
I1000
F0.90000000000000002
I7
I15
I300
tp714
(dp715
g4
F0.99999999999999989
sg5
F0.99999999999999989
sg6
F0.99999999999999989
sg7
F0.99999999999999989
ss(F0.00029999999999999997
I1200
F0.5
I5
I7
I300
tp716
(dp717
g4
F0.99999999999999989
sg5
F0.99999999999999989
sg6
F0.99999999999999989
sg7
F0.99999999999999989
ss(F0.00029999999999999997
I300
F0.90000000000000002
I10
I10
I300
tp718
(dp719
g4
F0.99999999999999989
sg5
F0.99999999999999989
sg6
F0.99999999999999989
sg7
F0.99999999999999989
ss(F0.00029999999999999997
I1200
F0.75
I5
I15
I300
tp720
(dp721
g4
F0.99999999999999989
sg5
F0.99999999999999989
sg6
F0.99999999999999989
sg7
F0.99999999999999989
ss(F0.00029999999999999997
I800
F0.29999999999999999
I10
I15
I300
tp722
(dp723
g4
F0.99999999999999989
sg5
F0.99999999999999989
sg6
F0.99999999999999989
sg7
F0.99999999999999989
ss(F0.00029999999999999997
I800
F0.10000000000000001
I10
I7
I300
tp724
(dp725
g4
F0.99999999999999989
sg5
F0.99999999999999989
sg6
F0.99999999999999989
sg7
F0.99999999999999989
ss(F0.00029999999999999997
I500
F0.5
I2
I10
I300
tp726
(dp727
g4
F0.99999999999999989
sg5
F0.99999999999999989
sg6
F0.99999999999999989
sg7
F0.99999999999999989
ss(F0.00029999999999999997
I500
F0.29999999999999999
I2
I7
I300
tp728
(dp729
g4
F0.99999999999999989
sg5
F0.99999999999999989
sg6
F0.99999999999999989
sg7
F0.99999999999999989
ss(F0.00029999999999999997
I500
F0.5
I3
I20
I300
tp730
(dp731
g4
F0.99999999999999989
sg5
F0.99999999999999989
sg6
F0.99999999999999989
sg7
F0.99999999999999989
ss(F0.00029999999999999997
I800
F0.75
I10
I15
I300
tp732
(dp733
g4
F0.99999999999999989
sg5
F0.99999999999999989
sg6
F0.99999999999999989
sg7
F0.99999999999999989
ss(F0.00029999999999999997
I300
F0.90000000000000002
I2
I15
I300
tp734
(dp735
g4
F0.99365853658536574
sg5
F0.98555555555555552
sg6
F0.99999999999999989
sg7
F0.99250220523375465
ss(F0.00029999999999999997
I800
F0.90000000000000002
I2
I10
I300
tp736
(dp737
g4
F0.99999999999999989
sg5
F0.99999999999999989
sg6
F0.99999999999999989
sg7
F0.99999999999999989
ss(F0.00029999999999999997
I500
F0.29999999999999999
I2
I5
I300
tp738
(dp739
g4
F0.99951219512195111
sg5
F0.99888888888888883
sg6
F0.99999999999999989
sg7
F0.99944134078212277
ss(F0.00029999999999999997
I1200
F0.75
I10
I7
I300
tp740
(dp741
g4
F0.99999999999999989
sg5
F0.99999999999999989
sg6
F0.99999999999999989
sg7
F0.99999999999999989
ss(F0.00029999999999999997
I300
F0.5
I2
I20
I300
tp742
(dp743
g4
F0.99999999999999989
sg5
F0.99999999999999989
sg6
F0.99999999999999989
sg7
F0.99999999999999989
ss(F0.00029999999999999997
I500
F0.29999999999999999
I3
I10
I300
tp744
(dp745
g4
F0.99999999999999989
sg5
F0.99999999999999989
sg6
F0.99999999999999989
sg7
F0.99999999999999989
ss(F0.00029999999999999997
I1000
F0.5
I2
I5
I300
tp746
(dp747
g4
F0.99999999999999989
sg5
F0.99999999999999989
sg6
F0.99999999999999989
sg7
F0.99999999999999989
ss(F0.00029999999999999997
I500
F0.5
I7
I5
I300
tp748
(dp749
g4
F0.86829268292682926
sg5
F0.69999999999999996
sg6
F0.69999999999999996
sg7
F0.69999999999999996
ss(F0.00029999999999999997
I1000
F0.29999999999999999
I5
I10
I300
tp750
(dp751
g4
F0.99999999999999989
sg5
F0.99999999999999989
sg6
F0.99999999999999989
sg7
F0.99999999999999989
ss(F0.00029999999999999997
I1200
F0.5
I7
I15
I300
tp752
(dp753
g4
F0.99999999999999989
sg5
F0.99999999999999989
sg6
F0.99999999999999989
sg7
F0.99999999999999989
ss(F0.00029999999999999997
I1000
F0.10000000000000001
I7
I20
I300
tp754
(dp755
g4
F0.99999999999999989
sg5
F0.99999999999999989
sg6
F0.99999999999999989
sg7
F0.99999999999999989
ss(F0.00029999999999999997
I500
F0.90000000000000002
I5
I7
I300
tp756
(dp757
g4
F0.99999999999999989
sg5
F0.99999999999999989
sg6
F0.99999999999999989
sg7
F0.99999999999999989
ss(F0.00029999999999999997
I800
F0.75
I2
I20
I300
tp758
(dp759
g4
F0.99999999999999989
sg5
F0.99999999999999989
sg6
F0.99999999999999989
sg7
F0.99999999999999989
ss(F0.00029999999999999997
I1200
F0.29999999999999999
I3
I10
I300
tp760
(dp761
g4
F0.99999999999999989
sg5
F0.99999999999999989
sg6
F0.99999999999999989
sg7
F0.99999999999999989
ss(F0.00029999999999999997
I800
F0.29999999999999999
I3
I7
I300
tp762
(dp763
g4
F0.99999999999999989
sg5
F0.99999999999999989
sg6
F0.99999999999999989
sg7
F0.99999999999999989
ss(F0.00029999999999999997
I1200
F0.10000000000000001
I7
I20
I300
tp764
(dp765
g4
F0.99999999999999989
sg5
F0.99999999999999989
sg6
F0.99999999999999989
sg7
F0.99999999999999989
ss(F0.00029999999999999997
I500
F0.10000000000000001
I5
I10
I300
tp766
(dp767
g4
F0.99999999999999989
sg5
F0.99999999999999989
sg6
F0.99999999999999989
sg7
F0.99999999999999989
ss(F0.00029999999999999997
I500
F0.5
I5
I15
I300
tp768
(dp769
g4
F0.99999999999999989
sg5
F0.99999999999999989
sg6
F0.99999999999999989
sg7
F0.99999999999999989
ss(F0.00029999999999999997
I1000
F0.75
I2
I20
I300
tp770
(dp771
g4
F0.99999999999999989
sg5
F0.99999999999999989
sg6
F0.99999999999999989
sg7
F0.99999999999999989
ss(F0.00029999999999999997
I300
F0.75
I2
I20
I300
tp772
(dp773
g4
F0.99999999999999989
sg5
F0.99999999999999989
sg6
F0.99999999999999989
sg7
F0.99999999999999989
ss(F0.00029999999999999997
I1000
F0.10000000000000001
I3
I15
I300
tp774
(dp775
g4
F0.99999999999999989
sg5
F0.99999999999999989
sg6
F0.99999999999999989
sg7
F0.99999999999999989
ss(F0.00029999999999999997
I1000
F0.90000000000000002
I3
I15
I300
tp776
(dp777
g4
F0.99999999999999989
sg5
F0.99999999999999989
sg6
F0.99999999999999989
sg7
F0.99999999999999989
ss(F0.00029999999999999997
I1200
F0.90000000000000002
I10
I7
I300
tp778
(dp779
g4
F0.99999999999999989
sg5
F0.99999999999999989
sg6
F0.99999999999999989
sg7
F0.99999999999999989
ss(F0.00029999999999999997
I300
F0.90000000000000002
I7
I15
I300
tp780
(dp781
g4
F0.99999999999999989
sg5
F0.99999999999999989
sg6
F0.99999999999999989
sg7
F0.99999999999999989
ss(F0.00029999999999999997
I800
F0.29999999999999999
I7
I7
I300
tp782
(dp783
g4
F0.95609756097560961
sg5
F0.89999999999999991
sg6
F0.89999999999999991
sg7
F0.89999999999999991
ss(F0.00029999999999999997
I1200
F0.29999999999999999
I10
I5
I300
tp784
(dp785
g4
F0.86829268292682915
sg5
F0.69999999999999996
sg6
F0.69999999999999996
sg7
F0.69999999999999996
ss(F0.00029999999999999997
I1000
F0.5
I5
I5
I300
tp786
(dp787
g4
F0.99999999999999989
sg5
F0.99999999999999989
sg6
F0.99999999999999989
sg7
F0.99999999999999989
ss(F0.00029999999999999997
I1000
F0.75
I2
I5
I300
tp788
(dp789
g4
F0.99999999999999989
sg5
F0.99999999999999989
sg6
F0.99999999999999989
sg7
F0.99999999999999989
ss(F0.00029999999999999997
I500
F0.75
I10
I5
I300
tp790
(dp791
g4
F0.86829268292682926
sg5
F0.69999999999999996
sg6
F0.69999999999999996
sg7
F0.69999999999999996
ss(F0.00029999999999999997
I1000
F0.10000000000000001
I5
I7
I300
tp792
(dp793
g4
F0.99951219512195111
sg5
F0.99888888888888872
sg6
F0.99999999999999989
sg7
F0.99944134078212277
ss(F0.00029999999999999997
I1000
F0.90000000000000002
I5
I7
I300
tp794
(dp795
g4
F0.99999999999999989
sg5
F0.99999999999999989
sg6
F0.99999999999999989
sg7
F0.99999999999999989
ss(F0.00029999999999999997
I500
F0.90000000000000002
I2
I15
I300
tp796
(dp797
g4
F0.99999999999999989
sg5
F0.99999999999999989
sg6
F0.99999999999999989
sg7
F0.99999999999999989
ss(F0.00029999999999999997
I300
F0.75
I7
I5
I300
tp798
(dp799
g4
F0.77756097560975612
sg5
F0.49333333333333329
sg6
F0.59999999999999998
sg7
F0.53473303670745276
ss(F0.00029999999999999997
I1000
F0.29999999999999999
I3
I10
I300
tp800
(dp801
g4
F0.99999999999999989
sg5
F0.99999999999999989
sg6
F0.99999999999999989
sg7
F0.99999999999999989
ss(F0.00029999999999999997
I1200
F0.10000000000000001
I10
I5
I300
tp802
(dp803
g4
F0.91219512195121955
sg5
F0.79999999999999993
sg6
F0.79999999999999993
sg7
F0.79999999999999993
ss(F0.00029999999999999997
I300
F0.29999999999999999
I3
I5
I300
tp804
(dp805
g4
F0.9258536585365853
sg5
F0.83333333333333337
sg6
F0.89782608695652166
sg7
F0.86132144958936585
ss(F0.00029999999999999997
I800
F0.5
I3
I10
I300
tp806
(dp807
g4
F0.99999999999999989
sg5
F0.99999999999999989
sg6
F0.99999999999999989
sg7
F0.99999999999999989
ss(F0.00029999999999999997
I1200
F0.10000000000000001
I2
I20
I300
tp808
(dp809
g4
F0.99999999999999989
sg5
F0.99999999999999989
sg6
F0.99999999999999989
sg7
F0.99999999999999989
ss(F0.00029999999999999997
I300
F0.75
I3
I10
I300
tp810
(dp811
g4
F0.99951219512195111
sg5
F0.99888888888888883
sg6
F0.99999999999999989
sg7
F0.99944134078212277
ss(F0.00029999999999999997
I500
F0.90000000000000002
I5
I20
I300
tp812
(dp813
g4
F0.99999999999999989
sg5
F0.99999999999999989
sg6
F0.99999999999999989
sg7
F0.99999999999999989
ss(F0.00029999999999999997
I1000
F0.29999999999999999
I5
I5
I300
tp814
(dp815
g4
F0.99999999999999989
sg5
F0.99999999999999989
sg6
F0.99999999999999989
sg7
F0.99999999999999989
ss(F0.00029999999999999997
I500
F0.5
I3
I15
I300
tp816
(dp817
g4
F0.99999999999999989
sg5
F0.99999999999999989
sg6
F0.99999999999999989
sg7
F0.99999999999999989
ss(F0.00029999999999999997
I800
F0.29999999999999999
I10
I7
I300
tp818
(dp819
g4
F0.99999999999999989
sg5
F0.99999999999999989
sg6
F0.99999999999999989
sg7
F0.99999999999999989
ss(F0.00029999999999999997
I800
F0.90000000000000002
I10
I15
I300
tp820
(dp821
g4
F0.99999999999999989
sg5
F0.99999999999999989
sg6
F0.99999999999999989
sg7
F0.99999999999999989
ss(F0.00029999999999999997
I800
F0.90000000000000002
I3
I10
I300
tp822
(dp823
g4
F0.99999999999999989
sg5
F0.99999999999999989
sg6
F0.99999999999999989
sg7
F0.99999999999999989
ss(F0.00029999999999999997
I1000
F0.5
I10
I15
I300
tp824
(dp825
g4
F0.99999999999999989
sg5
F0.99999999999999989
sg6
F0.99999999999999989
sg7
F0.99999999999999989
ss(F0.00029999999999999997
I300
F0.90000000000000002
I2
I5
I300
tp826
(dp827
g4
F0.80048780487804871
sg5
F0.54555555555555557
sg6
F0.79999999999999993
sg7
F0.62059641659330178
ss(F0.00029999999999999997
I1000
F0.29999999999999999
I3
I5
I300
tp828
(dp829
g4
F0.99999999999999989
sg5
F0.99999999999999989
sg6
F0.99999999999999989
sg7
F0.99999999999999989
ss(F0.00029999999999999997
I1200
F0.75
I7
I15
I300
tp830
(dp831
g4
F0.99999999999999989
sg5
F0.99999999999999989
sg6
F0.99999999999999989
sg7
F0.99999999999999989
ss(F0.00029999999999999997
I800
F0.75
I5
I10
I300
tp832
(dp833
g4
F0.99999999999999989
sg5
F0.99999999999999989
sg6
F0.99999999999999989
sg7
F0.99999999999999989
ss(F0.00029999999999999997
I500
F0.90000000000000002
I7
I15
I300
tp834
(dp835
g4
F0.99999999999999989
sg5
F0.99999999999999989
sg6
F0.99999999999999989
sg7
F0.99999999999999989
ss(F0.00029999999999999997
I1200
F0.75
I2
I7
I300
tp836
(dp837
g4
F0.99999999999999989
sg5
F0.99999999999999989
sg6
F0.99999999999999989
sg7
F0.99999999999999989
ss(F0.00029999999999999997
I800
F0.5
I5
I15
I300
tp838
(dp839
g4
F0.99999999999999989
sg5
F0.99999999999999989
sg6
F0.99999999999999989
sg7
F0.99999999999999989
ss(F0.00029999999999999997
I1000
F0.10000000000000001
I7
I15
I300
tp840
(dp841
g4
F0.99999999999999989
sg5
F0.99999999999999989
sg6
F0.99999999999999989
sg7
F0.99999999999999989
ss(F0.00029999999999999997
I1200
F0.5
I10
I20
I300
tp842
(dp843
g4
F0.99999999999999989
sg5
F0.99999999999999989
sg6
F0.99999999999999989
sg7
F0.99999999999999989
ss(F0.00029999999999999997
I800
F0.5
I2
I20
I300
tp844
(dp845
g4
F0.99999999999999989
sg5
F0.99999999999999989
sg6
F0.99999999999999989
sg7
F0.99999999999999989
ss(F0.00029999999999999997
I500
F0.90000000000000002
I10
I10
I300
tp846
(dp847
g4
F0.99999999999999989
sg5
F0.99999999999999989
sg6
F0.99999999999999989
sg7
F0.99999999999999989
ss(F0.00029999999999999997
I800
F0.10000000000000001
I5
I10
I300
tp848
(dp849
g4
F0.99999999999999989
sg5
F0.99999999999999989
sg6
F0.99999999999999989
sg7
F0.99999999999999989
ss(F0.00029999999999999997
I800
F0.10000000000000001
I7
I20
I300
tp850
(dp851
g4
F0.99999999999999989
sg5
F0.99999999999999989
sg6
F0.99999999999999989
sg7
F0.99999999999999989
ss(F0.00029999999999999997
I300
F0.90000000000000002
I5
I7
I300
tp852
(dp853
g4
F0.88536585365853648
sg5
F0.73888888888888893
sg6
F0.79999999999999993
sg7
F0.76684978033079276
ss(F0.00029999999999999997
I800
F0.75
I3
I15
I300
tp854
(dp855
g4
F0.99999999999999989
sg5
F0.99999999999999989
sg6
F0.99999999999999989
sg7
F0.99999999999999989
ss(F0.00029999999999999997
I500
F0.10000000000000001
I7
I15
I300
tp856
(dp857
g4
F0.99999999999999989
sg5
F0.99999999999999989
sg6
F0.99999999999999989
sg7
F0.99999999999999989
ss(F0.00029999999999999997
I1200
F0.5
I3
I10
I300
tp858
(dp859
g4
F0.99999999999999989
sg5
F0.99999999999999989
sg6
F0.99999999999999989
sg7
F0.99999999999999989
ss(F0.00029999999999999997
I300
F0.90000000000000002
I7
I5
I300
tp860
(dp861
g4
F0.75170731707317073
sg5
F0.43444444444444452
sg6
F0.5
sg7
F0.46184666137989849
ss(F0.00029999999999999997
I1200
F0.10000000000000001
I10
I10
I300
tp862
(dp863
g4
F0.99999999999999989
sg5
F0.99999999999999989
sg6
F0.99999999999999989
sg7
F0.99999999999999989
ss(F0.00029999999999999997
I300
F0.75
I10
I5
I300
tp864
(dp865
g4
F0.73073170731707338
sg5
F0.3866666666666666
sg6
F0.40000000000000002
sg7
F0.39293246504247792
ss(F0.00029999999999999997
I1200
F0.90000000000000002
I5
I10
I300
tp866
(dp867
g4
F0.99999999999999989
sg5
F0.99999999999999989
sg6
F0.99999999999999989
sg7
F0.99999999999999989
ss(F0.00029999999999999997
I800
F0.29999999999999999
I3
I20
I300
tp868
(dp869
g4
F0.99999999999999989
sg5
F0.99999999999999989
sg6
F0.99999999999999989
sg7
F0.99999999999999989
ss(F0.00029999999999999997
I300
F0.90000000000000002
I3
I20
I300
tp870
(dp871
g4
F0.99999999999999989
sg5
F0.99999999999999989
sg6
F0.99999999999999989
sg7
F0.99999999999999989
ss(F0.00029999999999999997
I800
F0.90000000000000002
I5
I15
I300
tp872
(dp873
g4
F0.99999999999999989
sg5
F0.99999999999999989
sg6
F0.99999999999999989
sg7
F0.99999999999999989
ss(F0.00029999999999999997
I800
F0.90000000000000002
I3
I20
I300
tp874
(dp875
g4
F0.99999999999999989
sg5
F0.99999999999999989
sg6
F0.99999999999999989
sg7
F0.99999999999999989
ss(F0.00029999999999999997
I300
F0.90000000000000002
I3
I15
I300
tp876
(dp877
g4
F0.99951219512195111
sg5
F0.99888888888888883
sg6
F0.99999999999999989
sg7
F0.99944134078212288
ss(F0.00029999999999999997
I500
F0.75
I2
I15
I300
tp878
(dp879
g4
F0.99999999999999989
sg5
F0.99999999999999989
sg6
F0.99999999999999989
sg7
F0.99999999999999989
ss(F0.00029999999999999997
I1200
F0.29999999999999999
I2
I5
I300
tp880
(dp881
g4
F0.99999999999999989
sg5
F0.99999999999999989
sg6
F0.99999999999999989
sg7
F0.99999999999999989
ss(F0.00029999999999999997
I300
F0.90000000000000002
I10
I15
I300
tp882
(dp883
g4
F0.99999999999999989
sg5
F0.99999999999999989
sg6
F0.99999999999999989
sg7
F0.99999999999999989
ss(F0.00029999999999999997
I1200
F0.90000000000000002
I3
I5
I300
tp884
(dp885
g4
F0.99999999999999989
sg5
F0.99999999999999989
sg6
F0.99999999999999989
sg7
F0.99999999999999989
ss(F0.00029999999999999997
I300
F0.29999999999999999
I3
I15
I300
tp886
(dp887
g4
F0.99999999999999989
sg5
F0.99999999999999989
sg6
F0.99999999999999989
sg7
F0.99999999999999989
ss(F0.00029999999999999997
I800
F0.29999999999999999
I7
I5
I300
tp888
(dp889
g4
F0.95609756097560961
sg5
F0.89999999999999991
sg6
F0.89999999999999991
sg7
F0.89999999999999991
ss(F0.00029999999999999997
I1200
F0.29999999999999999
I2
I7
I300
tp890
(dp891
g4
F0.99999999999999989
sg5
F0.99999999999999989
sg6
F0.99999999999999989
sg7
F0.99999999999999989
ss(F0.00029999999999999997
I500
F0.75
I3
I10
I300
tp892
(dp893
g4
F0.99999999999999989
sg5
F0.99999999999999989
sg6
F0.99999999999999989
sg7
F0.99999999999999989
ss(F0.00029999999999999997
I1200
F0.29999999999999999
I10
I15
I300
tp894
(dp895
g4
F0.99999999999999989
sg5
F0.99999999999999989
sg6
F0.99999999999999989
sg7
F0.99999999999999989
ss(F0.00029999999999999997
I1000
F0.5
I5
I7
I300
tp896
(dp897
g4
F0.99999999999999989
sg5
F0.99999999999999989
sg6
F0.99999999999999989
sg7
F0.99999999999999989
ss(F0.00029999999999999997
I1000
F0.29999999999999999
I10
I7
I300
tp898
(dp899
g4
F0.99999999999999989
sg5
F0.99999999999999989
sg6
F0.99999999999999989
sg7
F0.99999999999999989
ss(F0.00029999999999999997
I300
F0.75
I5
I15
I300
tp900
(dp901
g4
F0.99999999999999989
sg5
F0.99999999999999989
sg6
F0.99999999999999989
sg7
F0.99999999999999989
ss(F0.00029999999999999997
I1200
F0.90000000000000002
I10
I10
I300
tp902
(dp903
g4
F0.99999999999999989
sg5
F0.99999999999999989
sg6
F0.99999999999999989
sg7
F0.99999999999999989
ss(F0.00029999999999999997
I1200
F0.5
I3
I7
I300
tp904
(dp905
g4
F0.99999999999999989
sg5
F0.99999999999999989
sg6
F0.99999999999999989
sg7
F0.99999999999999989
ss(F0.00029999999999999997
I500
F0.29999999999999999
I3
I5
I300
tp906
(dp907
g4
F0.99902439024390233
sg5
F0.99777777777777765
sg6
F0.99999999999999989
sg7
F0.99888268156424564
ss(F0.00029999999999999997
I300
F0.75
I10
I7
I300
tp908
(dp909
g4
F0.86780487804878037
sg5
F0.69888888888888878
sg6
F0.69999999999999996
sg7
F0.69944134078212283
ss(F0.00029999999999999997
I1000
F0.5
I3
I5
I300
tp910
(dp911
g4
F0.99999999999999989
sg5
F0.99999999999999989
sg6
F0.99999999999999989
sg7
F0.99999999999999989
ss(F0.00029999999999999997
I300
F0.75
I7
I20
I300
tp912
(dp913
g4
F0.99999999999999989
sg5
F0.99999999999999989
sg6
F0.99999999999999989
sg7
F0.99999999999999989
ss(F0.00029999999999999997
I1200
F0.29999999999999999
I7
I10
I300
tp914
(dp915
g4
F0.99999999999999989
sg5
F0.99999999999999989
sg6
F0.99999999999999989
sg7
F0.99999999999999989
ss(F0.00029999999999999997
I300
F0.10000000000000001
I7
I10
I300
tp916
(dp917
g4
F0.99999999999999989
sg5
F0.99999999999999989
sg6
F0.99999999999999989
sg7
F0.99999999999999989
ss(F0.00029999999999999997
I1000
F0.10000000000000001
I3
I20
I300
tp918
(dp919
g4
F0.99999999999999989
sg5
F0.99999999999999989
sg6
F0.99999999999999989
sg7
F0.99999999999999989
ss(F0.00029999999999999997
I1000
F0.90000000000000002
I7
I7
I300
tp920
(dp921
g4
F0.99999999999999989
sg5
F0.99999999999999989
sg6
F0.99999999999999989
sg7
F0.99999999999999989
ss(F0.00029999999999999997
I500
F0.75
I7
I10
I300
tp922
(dp923
g4
F0.99999999999999989
sg5
F0.99999999999999989
sg6
F0.99999999999999989
sg7
F0.99999999999999989
ss(F0.00029999999999999997
I800
F0.75
I7
I10
I300
tp924
(dp925
g4
F0.99999999999999989
sg5
F0.99999999999999989
sg6
F0.99999999999999989
sg7
F0.99999999999999989
ss(F0.00029999999999999997
I800
F0.10000000000000001
I10
I15
I300
tp926
(dp927
g4
F0.99999999999999989
sg5
F0.99999999999999989
sg6
F0.99999999999999989
sg7
F0.99999999999999989
ss(F0.00029999999999999997
I300
F0.10000000000000001
I5
I15
I300
tp928
(dp929
g4
F0.99999999999999989
sg5
F0.99999999999999989
sg6
F0.99999999999999989
sg7
F0.99999999999999989
ss(F0.00029999999999999997
I800
F0.29999999999999999
I10
I5
I300
tp930
(dp931
g4
F0.82439024390243909
sg5
F0.59999999999999998
sg6
F0.59999999999999998
sg7
F0.59999999999999998
ss(F0.00029999999999999997
I800
F0.10000000000000001
I7
I10
I300
tp932
(dp933
g4
F0.99999999999999989
sg5
F0.99999999999999989
sg6
F0.99999999999999989
sg7
F0.99999999999999989
ss(F0.00029999999999999997
I300
F0.90000000000000002
I2
I7
I300
tp934
(dp935
g4
F0.96048780487804863
sg5
F0.91999999999999993
sg6
F0.99090909090909085
sg7
F0.95022271907721567
ss(F0.00029999999999999997
I500
F0.10000000000000001
I7
I5
I300
tp936
(dp937
g4
F0.95609756097560972
sg5
F0.89999999999999991
sg6
F0.89999999999999991
sg7
F0.89999999999999991
ss(F0.00029999999999999997
I300
F0.29999999999999999
I7
I10
I300
tp938
(dp939
g4
F0.99999999999999989
sg5
F0.99999999999999989
sg6
F0.99999999999999989
sg7
F0.99999999999999989
ss(F0.00029999999999999997
I1200
F0.10000000000000001
I2
I5
I300
tp940
(dp941
g4
F0.99999999999999989
sg5
F0.99999999999999989
sg6
F0.99999999999999989
sg7
F0.99999999999999989
ss(F0.00029999999999999997
I1200
F0.90000000000000002
I5
I7
I300
tp942
(dp943
g4
F0.99999999999999989
sg5
F0.99999999999999989
sg6
F0.99999999999999989
sg7
F0.99999999999999989
ss(F0.00029999999999999997
I1200
F0.10000000000000001
I2
I15
I300
tp944
(dp945
g4
F0.99999999999999989
sg5
F0.99999999999999989
sg6
F0.99999999999999989
sg7
F0.99999999999999989
ss(F0.00029999999999999997
I1200
F0.5
I2
I20
I300
tp946
(dp947
g4
F0.99999999999999989
sg5
F0.99999999999999989
sg6
F0.99999999999999989
sg7
F0.99999999999999989
ss(F0.00029999999999999997
I1000
F0.90000000000000002
I3
I5
I300
tp948
(dp949
g4
F0.99999999999999989
sg5
F0.99999999999999989
sg6
F0.99999999999999989
sg7
F0.99999999999999989
ss(F0.00029999999999999997
I1000
F0.90000000000000002
I2
I7
I300
tp950
(dp951
g4
F0.99999999999999989
sg5
F0.99999999999999989
sg6
F0.99999999999999989
sg7
F0.99999999999999989
ss(F0.00029999999999999997
I300
F0.10000000000000001
I10
I5
I300
tp952
(dp953
g4
F0.82243902439024408
sg5
F0.5955555555555555
sg6
F0.59999999999999998
sg7
F0.59775908605862793
ss(F0.00029999999999999997
I800
F0.29999999999999999
I3
I15
I300
tp954
(dp955
g4
F0.99999999999999989
sg5
F0.99999999999999989
sg6
F0.99999999999999989
sg7
F0.99999999999999989
ss(F0.00029999999999999997
I1000
F0.5
I2
I10
I300
tp956
(dp957
g4
F0.99999999999999989
sg5
F0.99999999999999989
sg6
F0.99999999999999989
sg7
F0.99999999999999989
ss(F0.00029999999999999997
I1200
F0.29999999999999999
I3
I20
I300
tp958
(dp959
g4
F0.99999999999999989
sg5
F0.99999999999999989
sg6
F0.99999999999999989
sg7
F0.99999999999999989
ss(F0.00029999999999999997
I800
F0.10000000000000001
I3
I5
I300
tp960
(dp961
g4
F0.99902439024390233
sg5
F0.99777777777777765
sg6
F0.99999999999999989
sg7
F0.99887640449438198
ss(F0.00029999999999999997
I1000
F0.75
I10
I10
I300
tp962
(dp963
g4
F0.99999999999999989
sg5
F0.99999999999999989
sg6
F0.99999999999999989
sg7
F0.99999999999999989
ss(F0.00029999999999999997
I300
F0.29999999999999999
I7
I5
I300
tp964
(dp965
g4
F0.8214634146341464
sg5
F0.59333333333333338
sg6
F0.59999999999999998
sg7
F0.59655172413793101
ss(F0.00029999999999999997
I1000
F0.90000000000000002
I2
I20
I300
tp966
(dp967
g4
F0.99999999999999989
sg5
F0.99999999999999989
sg6
F0.99999999999999989
sg7
F0.99999999999999989
ss(F0.00029999999999999997
I1200
F0.90000000000000002
I10
I15
I300
tp968
(dp969
g4
F0.99999999999999989
sg5
F0.99999999999999989
sg6
F0.99999999999999989
sg7
F0.99999999999999989
ss(F0.00029999999999999997
I300
F0.90000000000000002
I7
I7
I300
tp970
(dp971
g4
F0.95073170731707302
sg5
F0.88777777777777778
sg6
F0.89999999999999991
sg7
F0.89373949044793954
ss(F0.00029999999999999997
I300
F0.75
I3
I5
I300
tp972
(dp973
g4
F0.92975609756097544
sg5
F0.84222222222222221
sg6
F0.89782608695652166
sg7
F0.86225107969249337
ss(F0.00029999999999999997
I500
F0.5
I2
I15
I300
tp974
(dp975
g4
F0.99999999999999989
sg5
F0.99999999999999989
sg6
F0.99999999999999989
sg7
F0.99999999999999989
ss(F0.00029999999999999997
I1200
F0.10000000000000001
I5
I7
I300
tp976
(dp977
g4
F0.99999999999999989
sg5
F0.99999999999999989
sg6
F0.99999999999999989
sg7
F0.99999999999999989
ss(F0.00029999999999999997
I300
F0.29999999999999999
I7
I15
I300
tp978
(dp979
g4
F0.99999999999999989
sg5
F0.99999999999999989
sg6
F0.99999999999999989
sg7
F0.99999999999999989
ss(F0.00029999999999999997
I1200
F0.29999999999999999
I5
I10
I300
tp980
(dp981
g4
F0.99999999999999989
sg5
F0.99999999999999989
sg6
F0.99999999999999989
sg7
F0.99999999999999989
ss(F0.00029999999999999997
I1000
F0.10000000000000001
I5
I15
I300
tp982
(dp983
g4
F0.99999999999999989
sg5
F0.99999999999999989
sg6
F0.99999999999999989
sg7
F0.99999999999999989
ss(F0.00029999999999999997
I800
F0.29999999999999999
I2
I7
I300
tp984
(dp985
g4
F0.99999999999999989
sg5
F0.99999999999999989
sg6
F0.99999999999999989
sg7
F0.99999999999999989
ss(F0.00029999999999999997
I1000
F0.5
I10
I10
I300
tp986
(dp987
g4
F0.99999999999999989
sg5
F0.99999999999999989
sg6
F0.99999999999999989
sg7
F0.99999999999999989
ss(F0.00029999999999999997
I1200
F0.29999999999999999
I3
I5
I300
tp988
(dp989
g4
F0.99999999999999989
sg5
F0.99999999999999989
sg6
F0.99999999999999989
sg7
F0.99999999999999989
ss(F0.00029999999999999997
I1000
F0.75
I5
I5
I300
tp990
(dp991
g4
F0.99999999999999989
sg5
F0.99999999999999989
sg6
F0.99999999999999989
sg7
F0.99999999999999989
ss(F0.00029999999999999997
I1200
F0.75
I10
I10
I300
tp992
(dp993
g4
F0.99999999999999989
sg5
F0.99999999999999989
sg6
F0.99999999999999989
sg7
F0.99999999999999989
ss(F0.00029999999999999997
I1000
F0.90000000000000002
I3
I10
I300
tp994
(dp995
g4
F0.99999999999999989
sg5
F0.99999999999999989
sg6
F0.99999999999999989
sg7
F0.99999999999999989
ss(F0.00029999999999999997
I1200
F0.29999999999999999
I5
I20
I300
tp996
(dp997
g4
F0.99999999999999989
sg5
F0.99999999999999989
sg6
F0.99999999999999989
sg7
F0.99999999999999989
ss(F0.00029999999999999997
I1000
F0.90000000000000002
I2
I10
I300
tp998
(dp999
g4
F0.99999999999999989
sg5
F0.99999999999999989
sg6
F0.99999999999999989
sg7
F0.99999999999999989
ss(F0.00029999999999999997
I1000
F0.90000000000000002
I10
I15
I300
tp1000
(dp1001
g4
F0.99999999999999989
sg5
F0.99999999999999989
sg6
F0.99999999999999989
sg7
F0.99999999999999989
ss(F0.00029999999999999997
I500
F0.5
I5
I10
I300
tp1002
(dp1003
g4
F0.99999999999999989
sg5
F0.99999999999999989
sg6
F0.99999999999999989
sg7
F0.99999999999999989
ss(F0.00029999999999999997
I1200
F0.75
I2
I10
I300
tp1004
(dp1005
g4
F0.99999999999999989
sg5
F0.99999999999999989
sg6
F0.99999999999999989
sg7
F0.99999999999999989
ss(F0.00029999999999999997
I500
F0.90000000000000002
I10
I15
I300
tp1006
(dp1007
g4
F0.99999999999999989
sg5
F0.99999999999999989
sg6
F0.99999999999999989
sg7
F0.99999999999999989
ss(F0.00029999999999999997
I800
F0.75
I10
I20
I300
tp1008
(dp1009
g4
F0.99999999999999989
sg5
F0.99999999999999989
sg6
F0.99999999999999989
sg7
F0.99999999999999989
ss(F0.00029999999999999997
I1200
F0.75
I2
I5
I300
tp1010
(dp1011
g4
F0.99999999999999989
sg5
F0.99999999999999989
sg6
F0.99999999999999989
sg7
F0.99999999999999989
ss(F0.00029999999999999997
I1000
F0.10000000000000001
I3
I10
I300
tp1012
(dp1013
g4
F0.99999999999999989
sg5
F0.99999999999999989
sg6
F0.99999999999999989
sg7
F0.99999999999999989
ss(F0.00029999999999999997
I300
F0.10000000000000001
I7
I20
I300
tp1014
(dp1015
g4
F0.99999999999999989
sg5
F0.99999999999999989
sg6
F0.99999999999999989
sg7
F0.99999999999999989
ss(F0.00029999999999999997
I300
F0.90000000000000002
I5
I10
I300
tp1016
(dp1017
g4
F0.98878048780487793
sg5
F0.97444444444444445
sg6
F0.99999999999999989
sg7
F0.98644201154454059
ss(F0.00029999999999999997
I1000
F0.5
I10
I7
I300
tp1018
(dp1019
g4
F0.91219512195121943
sg5
F0.79999999999999993
sg6
F0.79999999999999993
sg7
F0.79999999999999993
ss(F0.00029999999999999997
I1000
F0.90000000000000002
I3
I20
I300
tp1020
(dp1021
g4
F0.99999999999999989
sg5
F0.99999999999999989
sg6
F0.99999999999999989
sg7
F0.99999999999999989
ss(F0.00029999999999999997
I1200
F0.90000000000000002
I5
I15
I300
tp1022
(dp1023
g4
F0.99999999999999989
sg5
F0.99999999999999989
sg6
F0.99999999999999989
sg7
F0.99999999999999989
ss(F0.00029999999999999997
I300
F0.90000000000000002
I10
I20
I300
tp1024
(dp1025
g4
F0.99999999999999989
sg5
F0.99999999999999989
sg6
F0.99999999999999989
sg7
F0.99999999999999989
ss(F0.00029999999999999997
I1200
F0.29999999999999999
I3
I15
I300
tp1026
(dp1027
g4
F0.99999999999999989
sg5
F0.99999999999999989
sg6
F0.99999999999999989
sg7
F0.99999999999999989
ss(F0.00029999999999999997
I800
F0.75
I5
I7
I300
tp1028
(dp1029
g4
F0.99999999999999989
sg5
F0.99999999999999989
sg6
F0.99999999999999989
sg7
F0.99999999999999989
ss(F0.00029999999999999997
I800
F0.10000000000000001
I10
I5
I300
tp1030
(dp1031
g4
F0.91219512195121955
sg5
F0.79999999999999993
sg6
F0.79999999999999993
sg7
F0.79999999999999993
ss(F0.00029999999999999997
I1200
F0.5
I7
I10
I300
tp1032
(dp1033
g4
F0.99999999999999989
sg5
F0.99999999999999989
sg6
F0.99999999999999989
sg7
F0.99999999999999989
ss(F0.00029999999999999997
I800
F0.90000000000000002
I2
I15
I300
tp1034
(dp1035
g4
F0.99999999999999989
sg5
F0.99999999999999989
sg6
F0.99999999999999989
sg7
F0.99999999999999989
ss(F0.00029999999999999997
I1200
F0.29999999999999999
I2
I10
I300
tp1036
(dp1037
g4
F0.99999999999999989
sg5
F0.99999999999999989
sg6
F0.99999999999999989
sg7
F0.99999999999999989
ss(F0.00029999999999999997
I500
F0.10000000000000001
I5
I5
I300
tp1038
(dp1039
g4
F0.99999999999999989
sg5
F0.99999999999999989
sg6
F0.99999999999999989
sg7
F0.99999999999999989
ss(F0.00029999999999999997
I500
F0.5
I10
I5
I300
tp1040
(dp1041
g4
F0.86829268292682937
sg5
F0.69999999999999996
sg6
F0.69999999999999996
sg7
F0.69999999999999996
ss(F0.00029999999999999997
I500
F0.75
I5
I10
I300
tp1042
(dp1043
g4
F0.99999999999999989
sg5
F0.99999999999999989
sg6
F0.99999999999999989
sg7
F0.99999999999999989
ss(F0.00029999999999999997
I500
F0.10000000000000001
I7
I7
I300
tp1044
(dp1045
g4
F0.99999999999999989
sg5
F0.99999999999999989
sg6
F0.99999999999999989
sg7
F0.99999999999999989
ss(F0.00029999999999999997
I300
F0.75
I5
I10
I300
tp1046
(dp1047
g4
F0.99999999999999989
sg5
F0.99999999999999989
sg6
F0.99999999999999989
sg7
F0.99999999999999989
ss(F0.00029999999999999997
I1000
F0.75
I7
I7
I300
tp1048
(dp1049
g4
F0.99999999999999989
sg5
F0.99999999999999989
sg6
F0.99999999999999989
sg7
F0.99999999999999989
ss(F0.00029999999999999997
I1200
F0.10000000000000001
I2
I10
I300
tp1050
(dp1051
g4
F0.99999999999999989
sg5
F0.99999999999999989
sg6
F0.99999999999999989
sg7
F0.99999999999999989
ss(F0.00029999999999999997
I1000
F0.5
I2
I7
I300
tp1052
(dp1053
g4
F0.99999999999999989
sg5
F0.99999999999999989
sg6
F0.99999999999999989
sg7
F0.99999999999999989
ss(F0.00029999999999999997
I800
F0.29999999999999999
I7
I10
I300
tp1054
(dp1055
g4
F0.99999999999999989
sg5
F0.99999999999999989
sg6
F0.99999999999999989
sg7
F0.99999999999999989
ss(F0.00029999999999999997
I1200
F0.29999999999999999
I7
I5
I300
tp1056
(dp1057
g4
F0.99999999999999989
sg5
F0.99999999999999989
sg6
F0.99999999999999989
sg7
F0.99999999999999989
ss(F0.00029999999999999997
I500
F0.29999999999999999
I7
I20
I300
tp1058
(dp1059
g4
F0.99999999999999989
sg5
F0.99999999999999989
sg6
F0.99999999999999989
sg7
F0.99999999999999989
ss(F0.00029999999999999997
I300
F0.75
I3
I20
I300
tp1060
(dp1061
g4
F0.99999999999999989
sg5
F0.99999999999999989
sg6
F0.99999999999999989
sg7
F0.99999999999999989
ss(F0.00029999999999999997
I800
F0.10000000000000001
I3
I7
I300
tp1062
(dp1063
g4
F0.99999999999999989
sg5
F0.99999999999999989
sg6
F0.99999999999999989
sg7
F0.99999999999999989
ss(F0.00029999999999999997
I500
F0.75
I7
I20
I300
tp1064
(dp1065
g4
F0.99999999999999989
sg5
F0.99999999999999989
sg6
F0.99999999999999989
sg7
F0.99999999999999989
ss(F0.00029999999999999997
I1200
F0.29999999999999999
I7
I15
I300
tp1066
(dp1067
g4
F0.99999999999999989
sg5
F0.99999999999999989
sg6
F0.99999999999999989
sg7
F0.99999999999999989
ss(F0.00029999999999999997
I1000
F0.90000000000000002
I10
I20
I300
tp1068
(dp1069
g4
F0.99999999999999989
sg5
F0.99999999999999989
sg6
F0.99999999999999989
sg7
F0.99999999999999989
ss(F0.00029999999999999997
I1200
F0.75
I3
I20
I300
tp1070
(dp1071
g4
F0.99999999999999989
sg5
F0.99999999999999989
sg6
F0.99999999999999989
sg7
F0.99999999999999989
ss(F0.00029999999999999997
I300
F0.5
I5
I5
I300
tp1072
(dp1073
g4
F0.82487804878048787
sg5
F0.60111111111111115
sg6
F0.69999999999999996
sg7
F0.62963766418799483
ss(F0.00029999999999999997
I500
F0.90000000000000002
I7
I20
I300
tp1074
(dp1075
g4
F0.99999999999999989
sg5
F0.99999999999999989
sg6
F0.99999999999999989
sg7
F0.99999999999999989
ss(F0.00029999999999999997
I300
F0.29999999999999999
I5
I5
I300
tp1076
(dp1077
g4
F0.76585365853658549
sg5
F0.46666666666666667
sg6
F0.5
sg7
F0.48152929493545188
ss(F0.00029999999999999997
I800
F0.90000000000000002
I5
I5
I300
tp1078
(dp1079
g4
F0.99999999999999989
sg5
F0.99999999999999989
sg6
F0.99999999999999989
sg7
F0.99999999999999989
ss(F0.00029999999999999997
I800
F0.10000000000000001
I10
I10
I300
tp1080
(dp1081
g4
F0.99999999999999989
sg5
F0.99999999999999989
sg6
F0.99999999999999989
sg7
F0.99999999999999989
ss(F0.00029999999999999997
I1000
F0.5
I5
I15
I300
tp1082
(dp1083
g4
F0.99999999999999989
sg5
F0.99999999999999989
sg6
F0.99999999999999989
sg7
F0.99999999999999989
ss(F0.00029999999999999997
I1200
F0.10000000000000001
I5
I20
I300
tp1084
(dp1085
g4
F0.99999999999999989
sg5
F0.99999999999999989
sg6
F0.99999999999999989
sg7
F0.99999999999999989
ss(F0.00029999999999999997
I800
F0.75
I10
I7
I300
tp1086
(dp1087
g4
F0.99999999999999989
sg5
F0.99999999999999989
sg6
F0.99999999999999989
sg7
F0.99999999999999989
ss(F0.00029999999999999997
I1200
F0.29999999999999999
I3
I7
I300
tp1088
(dp1089
g4
F0.99999999999999989
sg5
F0.99999999999999989
sg6
F0.99999999999999989
sg7
F0.99999999999999989
ss(F0.00029999999999999997
I300
F0.10000000000000001
I3
I7
I300
tp1090
(dp1091
g4
F0.93414634146341458
sg5
F0.84999999999999987
sg6
F0.89999999999999991
sg7
F0.86788296266780929
ss(F0.00029999999999999997
I500
F0.90000000000000002
I10
I5
I300
tp1092
(dp1093
g4
F0.73560975609756107
sg5
F0.39777777777777779
sg6
F0.40000000000000002
sg7
F0.398876404494382
ss(F0.00029999999999999997
I800
F0.75
I10
I10
I300
tp1094
(dp1095
g4
F0.99999999999999989
sg5
F0.99999999999999989
sg6
F0.99999999999999989
sg7
F0.99999999999999989
ss(F0.00029999999999999997
I1000
F0.10000000000000001
I2
I5
I300
tp1096
(dp1097
g4
F0.99999999999999989
sg5
F0.99999999999999989
sg6
F0.99999999999999989
sg7
F0.99999999999999989
ss(F0.00029999999999999997
I500
F0.90000000000000002
I3
I20
I300
tp1098
(dp1099
g4
F0.99999999999999989
sg5
F0.99999999999999989
sg6
F0.99999999999999989
sg7
F0.99999999999999989
ss(F0.00029999999999999997
I1200
F0.75
I10
I20
I300
tp1100
(dp1101
g4
F0.99999999999999989
sg5
F0.99999999999999989
sg6
F0.99999999999999989
sg7
F0.99999999999999989
ss(F0.00029999999999999997
I1000
F0.75
I5
I20
I300
tp1102
(dp1103
g4
F0.99999999999999989
sg5
F0.99999999999999989
sg6
F0.99999999999999989
sg7
F0.99999999999999989
ss(F0.00029999999999999997
I500
F0.10000000000000001
I10
I20
I300
tp1104
(dp1105
g4
F0.99999999999999989
sg5
F0.99999999999999989
sg6
F0.99999999999999989
sg7
F0.99999999999999989
ss(F0.00029999999999999997
I1000
F0.5
I3
I7
I300
tp1106
(dp1107
g4
F0.99999999999999989
sg5
F0.99999999999999989
sg6
F0.99999999999999989
sg7
F0.99999999999999989
ss(F0.00029999999999999997
I300
F0.75
I5
I5
I300
tp1108
(dp1109
g4
F0.81073170731707322
sg5
F0.56888888888888889
sg6
F0.59999999999999998
sg7
F0.58157894736842108
ss(F0.00029999999999999997
I800
F0.29999999999999999
I2
I5
I300
tp1110
(dp1111
g4
F0.99999999999999989
sg5
F0.99999999999999989
sg6
F0.99999999999999989
sg7
F0.99999999999999989
ss(F0.00029999999999999997
I500
F0.10000000000000001
I5
I20
I300
tp1112
(dp1113
g4
F0.99999999999999989
sg5
F0.99999999999999989
sg6
F0.99999999999999989
sg7
F0.99999999999999989
ss(F0.00029999999999999997
I800
F0.29999999999999999
I2
I15
I300
tp1114
(dp1115
g4
F0.99999999999999989
sg5
F0.99999999999999989
sg6
F0.99999999999999989
sg7
F0.99999999999999989
ss(F0.00029999999999999997
I800
F0.90000000000000002
I2
I5
I300
tp1116
(dp1117
g4
F0.99999999999999989
sg5
F0.99999999999999989
sg6
F0.99999999999999989
sg7
F0.99999999999999989
ss(F0.00029999999999999997
I500
F0.75
I2
I20
I300
tp1118
(dp1119
g4
F0.99999999999999989
sg5
F0.99999999999999989
sg6
F0.99999999999999989
sg7
F0.99999999999999989
ss(F0.00029999999999999997
I800
F0.5
I7
I20
I300
tp1120
(dp1121
g4
F0.99999999999999989
sg5
F0.99999999999999989
sg6
F0.99999999999999989
sg7
F0.99999999999999989
ss(F0.00029999999999999997
I500
F0.29999999999999999
I10
I7
I300
tp1122
(dp1123
g4
F0.95609756097560972
sg5
F0.89999999999999991
sg6
F0.89999999999999991
sg7
F0.89999999999999991
ss(F0.00029999999999999997
I500
F0.5
I10
I20
I300
tp1124
(dp1125
g4
F0.99999999999999989
sg5
F0.99999999999999989
sg6
F0.99999999999999989
sg7
F0.99999999999999989
ss(F0.00029999999999999997
I1000
F0.90000000000000002
I5
I5
I300
tp1126
(dp1127
g4
F0.99999999999999989
sg5
F0.99999999999999989
sg6
F0.99999999999999989
sg7
F0.99999999999999989
ss(F0.00029999999999999997
I800
F0.75
I3
I10
I300
tp1128
(dp1129
g4
F0.99999999999999989
sg5
F0.99999999999999989
sg6
F0.99999999999999989
sg7
F0.99999999999999989
ss(F0.00029999999999999997
I1000
F0.75
I10
I7
I300
tp1130
(dp1131
g4
F0.99999999999999989
sg5
F0.99999999999999989
sg6
F0.99999999999999989
sg7
F0.99999999999999989
ss(F0.00029999999999999997
I800
F0.10000000000000001
I2
I15
I300
tp1132
(dp1133
g4
F0.99999999999999989
sg5
F0.99999999999999989
sg6
F0.99999999999999989
sg7
F0.99999999999999989
ss(F0.00029999999999999997
I1200
F0.10000000000000001
I2
I7
I300
tp1134
(dp1135
g4
F0.99999999999999989
sg5
F0.99999999999999989
sg6
F0.99999999999999989
sg7
F0.99999999999999989
ss(F0.00029999999999999997
I1200
F0.75
I5
I20
I300
tp1136
(dp1137
g4
F0.99999999999999989
sg5
F0.99999999999999989
sg6
F0.99999999999999989
sg7
F0.99999999999999989
ss(F0.00029999999999999997
I500
F0.29999999999999999
I10
I5
I300
tp1138
(dp1139
g4
F0.82439024390243909
sg5
F0.59999999999999998
sg6
F0.59999999999999998
sg7
F0.59999999999999998
ss(F0.00029999999999999997
I1000
F0.10000000000000001
I5
I10
I300
tp1140
(dp1141
g4
F0.99999999999999989
sg5
F0.99999999999999989
sg6
F0.99999999999999989
sg7
F0.99999999999999989
ss(F0.00029999999999999997
I800
F0.29999999999999999
I5
I10
I300
tp1142
(dp1143
g4
F0.99999999999999989
sg5
F0.99999999999999989
sg6
F0.99999999999999989
sg7
F0.99999999999999989
ss(F0.00029999999999999997
I1000
F0.10000000000000001
I10
I20
I300
tp1144
(dp1145
g4
F0.99999999999999989
sg5
F0.99999999999999989
sg6
F0.99999999999999989
sg7
F0.99999999999999989
ss(F0.00029999999999999997
I1000
F0.90000000000000002
I2
I15
I300
tp1146
(dp1147
g4
F0.99999999999999989
sg5
F0.99999999999999989
sg6
F0.99999999999999989
sg7
F0.99999999999999989
ss(F0.00029999999999999997
I1000
F0.29999999999999999
I2
I10
I300
tp1148
(dp1149
g4
F0.99999999999999989
sg5
F0.99999999999999989
sg6
F0.99999999999999989
sg7
F0.99999999999999989
ss(F0.00029999999999999997
I1000
F0.29999999999999999
I5
I15
I300
tp1150
(dp1151
g4
F0.99999999999999989
sg5
F0.99999999999999989
sg6
F0.99999999999999989
sg7
F0.99999999999999989
ss(F0.00029999999999999997
I300
F0.75
I10
I10
I300
tp1152
(dp1153
g4
F0.99999999999999989
sg5
F0.99999999999999989
sg6
F0.99999999999999989
sg7
F0.99999999999999989
ss(F0.00029999999999999997
I300
F0.5
I10
I15
I300
tp1154
(dp1155
g4
F0.99999999999999989
sg5
F0.99999999999999989
sg6
F0.99999999999999989
sg7
F0.99999999999999989
ss(F0.00029999999999999997
I800
F0.5
I2
I10
I300
tp1156
(dp1157
g4
F0.99999999999999989
sg5
F0.99999999999999989
sg6
F0.99999999999999989
sg7
F0.99999999999999989
ss(F0.00029999999999999997
I300
F0.5
I2
I15
I300
tp1158
(dp1159
g4
F0.99999999999999989
sg5
F0.99999999999999989
sg6
F0.99999999999999989
sg7
F0.99999999999999989
ss(F0.00029999999999999997
I800
F0.5
I5
I5
I300
tp1160
(dp1161
g4
F0.99999999999999989
sg5
F0.99999999999999989
sg6
F0.99999999999999989
sg7
F0.99999999999999989
ss(F0.00029999999999999997
I1200
F0.90000000000000002
I7
I7
I300
tp1162
(dp1163
g4
F0.99999999999999989
sg5
F0.99999999999999989
sg6
F0.99999999999999989
sg7
F0.99999999999999989
ss(F0.00029999999999999997
I500
F0.75
I5
I15
I300
tp1164
(dp1165
g4
F0.99999999999999989
sg5
F0.99999999999999989
sg6
F0.99999999999999989
sg7
F0.99999999999999989
ss(F0.00029999999999999997
I800
F0.75
I7
I20
I300
tp1166
(dp1167
g4
F0.99999999999999989
sg5
F0.99999999999999989
sg6
F0.99999999999999989
sg7
F0.99999999999999989
ss(F0.00029999999999999997
I300
F0.29999999999999999
I7
I7
I300
tp1168
(dp1169
g4
F0.99512195121951208
sg5
F0.98888888888888882
sg6
F0.99999999999999989
sg7
F0.99431147065225278
ss(F0.00029999999999999997
I1000
F0.29999999999999999
I10
I5
I300
tp1170
(dp1171
g4
F0.86829268292682937
sg5
F0.69999999999999996
sg6
F0.69999999999999996
sg7
F0.69999999999999996
ss(F0.00029999999999999997
I300
F0.5
I3
I10
I300
tp1172
(dp1173
g4
F0.99999999999999989
sg5
F0.99999999999999989
sg6
F0.99999999999999989
sg7
F0.99999999999999989
ss(F0.00029999999999999997
I300
F0.5
I2
I10
I300
tp1174
(dp1175
g4
F0.99902439024390233
sg5
F0.99777777777777765
sg6
F0.99999999999999989
sg7
F0.99888268156424576
ss(F0.00029999999999999997
I800
F0.5
I5
I10
I300
tp1176
(dp1177
g4
F0.99999999999999989
sg5
F0.99999999999999989
sg6
F0.99999999999999989
sg7
F0.99999999999999989
ss(F0.00029999999999999997
I800
F0.5
I10
I7
I300
tp1178
(dp1179
g4
F0.99999999999999989
sg5
F0.99999999999999989
sg6
F0.99999999999999989
sg7
F0.99999999999999989
ss(F0.00029999999999999997
I800
F0.10000000000000001
I7
I5
I300
tp1180
(dp1181
g4
F0.99999999999999989
sg5
F0.99999999999999989
sg6
F0.99999999999999989
sg7
F0.99999999999999989
ss(F0.00029999999999999997
I500
F0.10000000000000001
I5
I15
I300
tp1182
(dp1183
g4
F0.99999999999999989
sg5
F0.99999999999999989
sg6
F0.99999999999999989
sg7
F0.99999999999999989
ss(F0.00029999999999999997
I500
F0.75
I3
I15
I300
tp1184
(dp1185
g4
F0.99999999999999989
sg5
F0.99999999999999989
sg6
F0.99999999999999989
sg7
F0.99999999999999989
ss(F0.00029999999999999997
I800
F0.5
I5
I7
I300
tp1186
(dp1187
g4
F0.99999999999999989
sg5
F0.99999999999999989
sg6
F0.99999999999999989
sg7
F0.99999999999999989
ss(F0.00029999999999999997
I1200
F0.10000000000000001
I7
I15
I300
tp1188
(dp1189
g4
F0.99999999999999989
sg5
F0.99999999999999989
sg6
F0.99999999999999989
sg7
F0.99999999999999989
ss(F0.00029999999999999997
I300
F0.29999999999999999
I5
I7
I300
tp1190
(dp1191
g4
F0.95463414634146337
sg5
F0.89666666666666661
sg6
F0.89999999999999991
sg7
F0.89830508474576265
ss(F0.00029999999999999997
I300
F0.90000000000000002
I3
I5
I300
tp1192
(dp1193
g4
F0.92097560975609749
sg5
F0.82333333333333325
sg6
F0.89677419354838706
sg7
F0.85573858498615563
ss(F0.00029999999999999997
I1000
F0.29999999999999999
I2
I7
I300
tp1194
(dp1195
g4
F0.99999999999999989
sg5
F0.99999999999999989
sg6
F0.99999999999999989
sg7
F0.99999999999999989
ss(F0.00029999999999999997
I1000
F0.90000000000000002
I10
I7
I300
tp1196
(dp1197
g4
F0.99999999999999989
sg5
F0.99999999999999989
sg6
F0.99999999999999989
sg7
F0.99999999999999989
ss(F0.00029999999999999997
I1000
F0.10000000000000001
I7
I7
I300
tp1198
(dp1199
g4
F0.99999999999999989
sg5
F0.99999999999999989
sg6
F0.99999999999999989
sg7
F0.99999999999999989
ss(F0.00029999999999999997
I300
F0.10000000000000001
I10
I10
I300
tp1200
(dp1201
g4
F0.95609756097560972
sg5
F0.89999999999999991
sg6
F0.89999999999999991
sg7
F0.89999999999999991
ss(F0.00029999999999999997
I500
F0.90000000000000002
I10
I7
I300
tp1202
(dp1203
g4
F0.95609756097560972
sg5
F0.89999999999999991
sg6
F0.89999999999999991
sg7
F0.89999999999999991
ss(F0.00029999999999999997
I300
F0.90000000000000002
I3
I7
I300
tp1204
(dp1205
g4
F0.9156097560975609
sg5
F0.80777777777777782
sg6
F0.89999999999999991
sg7
F0.84059744415918336
ss(F0.00029999999999999997
I800
F0.29999999999999999
I7
I20
I300
tp1206
(dp1207
g4
F0.99999999999999989
sg5
F0.99999999999999989
sg6
F0.99999999999999989
sg7
F0.99999999999999989
ss(F0.00029999999999999997
I500
F0.10000000000000001
I2
I20
I300
tp1208
(dp1209
g4
F0.99999999999999989
sg5
F0.99999999999999989
sg6
F0.99999999999999989
sg7
F0.99999999999999989
ss(F0.00029999999999999997
I500
F0.10000000000000001
I2
I5
I300
tp1210
(dp1211
g4
F0.99902439024390233
sg5
F0.99999999999999989
sg6
F0.99782608695652164
sg7
F0.99890109890109879
ss(F0.00029999999999999997
I800
F0.10000000000000001
I2
I5
I300
tp1212
(dp1213
g4
F0.99999999999999989
sg5
F0.99999999999999989
sg6
F0.99999999999999989
sg7
F0.99999999999999989
ss(F0.00029999999999999997
I1200
F0.10000000000000001
I5
I5
I300
tp1214
(dp1215
g4
F0.99999999999999989
sg5
F0.99999999999999989
sg6
F0.99999999999999989
sg7
F0.99999999999999989
ss(F0.00029999999999999997
I1000
F0.90000000000000002
I7
I5
I300
tp1216
(dp1217
g4
F0.99999999999999989
sg5
F0.99999999999999989
sg6
F0.99999999999999989
sg7
F0.99999999999999989
ss(F0.00029999999999999997
I800
F0.10000000000000001
I3
I10
I300
tp1218
(dp1219
g4
F0.99999999999999989
sg5
F0.99999999999999989
sg6
F0.99999999999999989
sg7
F0.99999999999999989
ss(F0.00029999999999999997
I1200
F0.90000000000000002
I7
I5
I300
tp1220
(dp1221
g4
F0.99999999999999989
sg5
F0.99999999999999989
sg6
F0.99999999999999989
sg7
F0.99999999999999989
ss(F0.00029999999999999997
I1200
F0.75
I3
I5
I300
tp1222
(dp1223
g4
F0.99999999999999989
sg5
F0.99999999999999989
sg6
F0.99999999999999989
sg7
F0.99999999999999989
ss(F0.00029999999999999997
I1000
F0.5
I5
I20
I300
tp1224
(dp1225
g4
F0.99999999999999989
sg5
F0.99999999999999989
sg6
F0.99999999999999989
sg7
F0.99999999999999989
ss(F0.00029999999999999997
I800
F0.90000000000000002
I2
I7
I300
tp1226
(dp1227
g4
F0.99999999999999989
sg5
F0.99999999999999989
sg6
F0.99999999999999989
sg7
F0.99999999999999989
ss(F0.00029999999999999997
I500
F0.10000000000000001
I3
I20
I300
tp1228
(dp1229
g4
F0.99999999999999989
sg5
F0.99999999999999989
sg6
F0.99999999999999989
sg7
F0.99999999999999989
ss(F0.00029999999999999997
I1200
F0.5
I5
I20
I300
tp1230
(dp1231
g4
F0.99999999999999989
sg5
F0.99999999999999989
sg6
F0.99999999999999989
sg7
F0.99999999999999989
ss(F0.00029999999999999997
I1000
F0.75
I2
I15
I300
tp1232
(dp1233
g4
F0.99999999999999989
sg5
F0.99999999999999989
sg6
F0.99999999999999989
sg7
F0.99999999999999989
ss(F0.00029999999999999997
I1000
F0.10000000000000001
I2
I7
I300
tp1234
(dp1235
g4
F0.99999999999999989
sg5
F0.99999999999999989
sg6
F0.99999999999999989
sg7
F0.99999999999999989
ss(F0.00029999999999999997
I300
F0.10000000000000001
I5
I5
I300
tp1236
(dp1237
g4
F0.95512195121951216
sg5
F0.89777777777777779
sg6
F0.89999999999999991
sg7
F0.89888268156424589
ss(F0.00029999999999999997
I300
F0.29999999999999999
I5
I10
I300
tp1238
(dp1239
g4
F0.99999999999999989
sg5
F0.99999999999999989
sg6
F0.99999999999999989
sg7
F0.99999999999999989
ss(F0.00029999999999999997
I800
F0.75
I5
I5
I300
tp1240
(dp1241
g4
F0.99999999999999989
sg5
F0.99999999999999989
sg6
F0.99999999999999989
sg7
F0.99999999999999989
ss(F0.00029999999999999997
I300
F0.5
I10
I20
I300
tp1242
(dp1243
g4
F0.99999999999999989
sg5
F0.99999999999999989
sg6
F0.99999999999999989
sg7
F0.99999999999999989
ss(F0.00029999999999999997
I300
F0.29999999999999999
I2
I20
I300
tp1244
(dp1245
g4
F0.99999999999999989
sg5
F0.99999999999999989
sg6
F0.99999999999999989
sg7
F0.99999999999999989
ss(F0.00029999999999999997
I1000
F0.29999999999999999
I7
I20
I300
tp1246
(dp1247
g4
F0.99999999999999989
sg5
F0.99999999999999989
sg6
F0.99999999999999989
sg7
F0.99999999999999989
ss(F0.00029999999999999997
I1200
F0.29999999999999999
I2
I15
I300
tp1248
(dp1249
g4
F0.99999999999999989
sg5
F0.99999999999999989
sg6
F0.99999999999999989
sg7
F0.99999999999999989
ss(F0.00029999999999999997
I1200
F0.90000000000000002
I5
I20
I300
tp1250
(dp1251
g4
F0.99999999999999989
sg5
F0.99999999999999989
sg6
F0.99999999999999989
sg7
F0.99999999999999989
ss(F0.00029999999999999997
I500
F0.10000000000000001
I10
I15
I300
tp1252
(dp1253
g4
F0.99999999999999989
sg5
F0.99999999999999989
sg6
F0.99999999999999989
sg7
F0.99999999999999989
ss(F0.00029999999999999997
I1000
F0.5
I2
I15
I300
tp1254
(dp1255
g4
F0.99999999999999989
sg5
F0.99999999999999989
sg6
F0.99999999999999989
sg7
F0.99999999999999989
ss(F0.00029999999999999997
I300
F0.75
I10
I20
I300
tp1256
(dp1257
g4
F0.99999999999999989
sg5
F0.99999999999999989
sg6
F0.99999999999999989
sg7
F0.99999999999999989
ss.