(dp1
(F0.0030000000000000001
I900
F0
I4
I4
I300
tp2
(dp3
S'acc'
p4
F0.93317073170731701
sS'rec'
p5
F0.8600000000000001
sS'prec'
p6
F0.88748693834900738
sS'f1'
p7
F0.87350302684048664
ss(F0.0030000000000000001
I1200
F0
I2
I2
I300
tp8
(dp9
g4
F0.80780487804878043
sg5
F0.57333333333333336
sg6
F0.58861024033437825
sg7
F0.58086713641846
ss(F0.0030000000000000001
I300
F0
I3
I4
I300
tp10
(dp11
g4
F0.93317073170731701
sg5
F0.8600000000000001
sg6
F0.88748693834900738
sg7
F0.87350302684048653
ss(F0.0030000000000000001
I100
F0
I4
I2
I300
tp12
(dp13
g4
F0.69414634146341481
sg5
F0.33444444444444443
sg6
F0.37323032351521007
sg7
F0.34583895257262098
ss(F0.0030000000000000001
I900
F0
I3
I4
I300
tp14
(dp15
g4
F0.93463414634146336
sg5
F0.8600000000000001
sg6
F0.89090909090909098
sg7
F0.87515321756894815
ss(F0.0030000000000000001
I600
F0
I3
I2
I300
tp16
(dp17
g4
F0.97853658536585353
sg5
F0.95555555555555571
sg6
F0.99542842215256
sg7
F0.97507040505993103
ss(F0.0030000000000000001
I1200
F0
I2
I8
I300
tp18
(dp19
g4
F0.97317073170731694
sg5
F0.95555555555555571
sg6
F0.98294148380355295
sg7
F0.96903418107950612
ss(F0.0030000000000000001
I900
F0
I5
I4
I300
tp20
(dp21
g4
F0.93560975609756092
sg5
F0.8600000000000001
sg6
F0.89318181818181819
sg7
F0.8762512768130748
ss(F0.0030000000000000001
I100
F0
I4
I4
I300
tp22
(dp23
g4
F0.94439024390243886
sg5
F0.90777777777777779
sg6
F0.96983182786223088
sg7
F0.93482885314948039
ss(F0.0030000000000000001
I600
F0
I2
I10
I300
tp24
(dp25
g4
F0.97268292682926816
sg5
F0.95555555555555571
sg6
F0.98176593521421118
sg7
F0.96847584587062774
ss(F0.0030000000000000001
I600
F0
I4
I10
I300
tp26
(dp27
g4
F0.97512195121951206
sg5
F0.95555555555555571
sg6
F0.98751218109025174
sg7
F0.97123639931926542
ss(F0.0030000000000000001
I900
F0
I5
I10
I300
tp28
(dp29
g4
F0.98097560975609743
sg5
F0.96555555555555572
sg6
F0.99092185903983654
sg7
F0.9780418472613841
ss(F0.0030000000000000001
I600
F0
I4
I4
I300
tp30
(dp31
g4
F0.93658536585365837
sg5
F0.8600000000000001
sg6
F0.8954545454545455
sg7
F0.87734933605720145
ss(F0.0030000000000000001
I900
F0
I5
I8
I300
tp32
(dp33
g4
F0.98341463414634134
sg5
F0.96222222222222231
sg6
F0.99999999999999989
sg7
F0.98071373911317683
ss(F0.0030000000000000001
I100
F0
I3
I8
I300
tp34
(dp35
g4
F0.96243902439024376
sg5
F0.9177777777777778
sg6
F0.99653835872761287
sg7
F0.95456915283978916
ss(F0.0030000000000000001
I1200
F0
I3
I2
I300
tp36
(dp37
g4
F0.89121951219512185
sg5
F0.76444444444444448
sg6
F0.78748693834900751
sg7
F0.77577575411321387
ss(F0.0030000000000000001
I300
F0
I5
I6
I300
tp38
(dp39
g4
F0.97756097560975597
sg5
F0.95555555555555571
sg6
F0.9931556948798328
sg7
F0.9739723458158045
ss(F0.0030000000000000001
I300
F0
I3
I8
I300
tp40
(dp41
g4
F0.97365853658536572
sg5
F0.95555555555555571
sg6
F0.98409090909090913
sg7
F0.96958631256384098
ss(F0.0030000000000000001
I600
F0
I2
I8
I300
tp42
(dp43
g4
F0.97219512195121938
sg5
F0.95555555555555571
sg6
F0.98066875653082564
sg7
F0.96793612183537936
ss(F0.0030000000000000001
I600
F0
I3
I8
I300
tp44
(dp45
g4
F0.9765853658536584
sg5
F0.95555555555555571
sg6
F0.99093433365033512
sg7
F0.97288659004772693
ss(F0.0030000000000000001
I100
F0
I3
I10
I300
tp46
(dp47
g4
F0.97121951219512181
sg5
F0.95111111111111124
sg6
F0.9828236251852932
sg7
F0.96669169797383492
ss(F0.0030000000000000001
I300
F0
I5
I4
I300
tp48
(dp49
g4
F0.8926829268292682
sg5
F0.76444444444444448
sg6
F0.79101010101010105
sg7
F0.77745034615821151
ss(F0.0030000000000000001
I300
F0
I2
I2
I300
tp50
(dp51
g4
F0.92146341463414627
sg5
F0.83444444444444432
sg6
F0.88653469526943862
sg7
F0.85930965355025946
ss(F0.0030000000000000001
I1200
F0
I4
I4
I300
tp52
(dp53
g4
F0.93365853658536579
sg5
F0.8600000000000001
sg6
F0.88868684911885221
sg7
F0.87406735782783351
ss(F0.0030000000000000001
I300
F0
I4
I6
I300
tp54
(dp55
g4
F0.97853658536585353
sg5
F0.95555555555555571
sg6
F0.99545454545454548
sg7
F0.97507660878447422
ss(F0.0030000000000000001
I900
F0
I2
I10
I300
tp56
(dp57
g4
F0.97317073170731694
sg5
F0.95555555555555571
sg6
F0.98294148380355306
sg7
F0.96903418107950612
ss(F0.0030000000000000001
I300
F0
I2
I8
I300
tp58
(dp59
g4
F0.97073170731707303
sg5
F0.95333333333333348
sg6
F0.97954545454545472
sg7
F0.96621464548624592
ss(F0.0030000000000000001
I600
F0
I5
I10
I300
tp60
(dp61
g4
F0.98097560975609743
sg5
F0.95777777777777806
sg6
F0.99887640449438186
sg7
F0.97786947689182346
ss(F0.0030000000000000001
I300
F0
I4
I8
I300
tp62
(dp63
g4
F0.97463414634146328
sg5
F0.95555555555555571
sg6
F0.98636363636363655
sg7
F0.97068437180796763
ss(F0.0030000000000000001
I100
F0
I2
I10
I300
tp64
(dp65
g4
F0.96731707317073157
sg5
F0.93666666666666665
sg6
F0.98858350951374196
sg7
F0.96170255444195174
ss(F0.0030000000000000001
I1200
F0
I4
I8
I300
tp66
(dp67
g4
F0.97951219512195109
sg5
F0.95777777777777806
sg6
F0.99545454545454548
sg7
F0.97620626125490872
ss(F0.0030000000000000001
I900
F0
I3
I8
I300
tp68
(dp69
g4
F0.97512195121951206
sg5
F0.95555555555555571
sg6
F0.98748693834900747
sg7
F0.97123029956775941
ss(F0.0030000000000000001
I300
F0
I3
I2
I300
tp70
(dp71
g4
F0.80439024390243907
sg5
F0.56333333333333335
sg6
F0.59093433365033521
sg7
F0.57659221890460888
ss(F0.0030000000000000001
I1200
F0
I2
I4
I300
tp72
(dp73
g4
F0.9717073170731706
sg5
F0.95555555555555571
sg6
F0.97957069728669899
sg7
F0.96739629382709369
ss(F0.0030000000000000001
I900
F0
I3
I10
I300
tp74
(dp75
g4
F0.97609756097560962
sg5
F0.95555555555555571
sg6
F0.98975966562173456
sg7
F0.97232835881188606
ss(F0.0030000000000000001
I1200
F0
I2
I10
I300
tp76
(dp77
g4
F0.97463414634146328
sg5
F0.95555555555555571
sg6
F0.98636363636363655
sg7
F0.97068437180796763
ss(F0.0030000000000000001
I300
F0
I3
I10
I300
tp78
(dp79
g4
F0.9741463414634145
sg5
F0.95555555555555571
sg6
F0.98521421107628004
sg7
F0.97013224032363277
ss(F0.0030000000000000001
I600
F0
I4
I8
I300
tp80
(dp81
g4
F0.97707317073170719
sg5
F0.95555555555555571
sg6
F0.99203239289446188
sg7
F0.97342641805601271
ss(F0.0030000000000000001
I900
F0
I3
I6
I300
tp82
(dp83
g4
F0.97463414634146328
sg5
F0.95555555555555571
sg6
F0.98638887910488082
sg7
F0.97069047155947363
ss(F0.0030000000000000001
I900
F0
I5
I6
I300
tp84
(dp85
g4
F0.93756097560975604
sg5
F0.8600000000000001
sg6
F0.89772727272727271
sg7
F0.87844739530132809
ss(F0.0030000000000000001
I300
F0
I5
I10
I300
tp86
(dp87
g4
F0.97756097560975597
sg5
F0.95555555555555571
sg6
F0.9931556948798328
sg7
F0.9739723458158045
ss(F0.0030000000000000001
I1200
F0
I5
I10
I300
tp88
(dp89
g4
F0.98731707317073159
sg5
F0.97222222222222232
sg6
F0.99887640449438186
sg7
F0.98529728405985029
ss(F0.0030000000000000001
I600
F0
I4
I2
I300
tp90
(dp91
g4
F0.8951219512195121
sg5
F0.76444444444444448
sg6
F0.79655172413793096
sg7
F0.78016178736517716
ss(F0.0030000000000000001
I1200
F0
I3
I8
I300
tp92
(dp93
g4
F0.97853658536585353
sg5
F0.95666666666666689
sg6
F0.99429175475687104
sg7
F0.97509586918509039
ss(F0.0030000000000000001
I300
F0
I5
I8
I300
tp94
(dp95
g4
F0.97756097560975597
sg5
F0.95555555555555571
sg6
F0.99318181818181817
sg7
F0.97397854954034757
ss(F0.0030000000000000001
I1200
F0
I5
I8
I300
tp96
(dp97
g4
F0.97999999999999987
sg5
F0.95777777777777784
sg6
F0.99660367722165477
sg7
F0.97677141764769682
ss(F0.0030000000000000001
I300
F0
I2
I6
I300
tp98
(dp99
g4
F0.97219512195121938
sg5
F0.95555555555555571
sg6
F0.98069399927206991
sg7
F0.96794222158688548
ss(F0.0030000000000000001
I100
F0
I5
I6
I300
tp100
(dp101
g4
F0.96048780487804863
sg5
F0.93222222222222229
sg6
F0.97800449364926267
sg7
F0.95383954700631401
ss(F0.0030000000000000001
I100
F0
I5
I2
I300
tp102
(dp103
g4
F0.62975609756097573
sg5
F0.15777777777777777
sg6
F0.19883720930232557
sg7
F0.17414192949907237
ss(F0.0030000000000000001
I300
F0
I4
I2
I300
tp104
(dp105
g4
F0.7678048780487805
sg5
F0.47222222222222221
sg6
F0.49883720930232556
sg7
F0.48514890282131656
ss(F0.0030000000000000001
I1200
F0
I3
I10
I300
tp106
(dp107
g4
F0.9765853658536584
sg5
F0.956666666666667
sg6
F0.9898110316649642
sg7
F0.97291847430642509
ss(F0.0030000000000000001
I900
F0
I4
I10
I300
tp108
(dp109
g4
F0.97609756097560962
sg5
F0.95555555555555571
sg6
F0.9898110316649642
sg7
F0.97234066228793514
ss(F0.0030000000000000001
I1200
F0
I4
I2
I300
tp110
(dp111
g4
F0.72780487804878047
sg5
F0.38222222222222224
sg6
F0.39772727272727271
sg7
F0.38981103166496428
ss(F0.0030000000000000001
I100
F0
I3
I2
I300
tp112
(dp113
g4
F0.75268292682926841
sg5
F0.45333333333333337
sg6
F0.4840335489293382
sg7
F0.46703879947664328
ss(F0.0030000000000000001
I300
F0
I4
I4
I300
tp114
(dp115
g4
F0.97951219512195109
sg5
F0.95555555555555571
sg6
F0.99772727272727257
sg7
F0.97617466802860087
ss(F0.0030000000000000001
I900
F0
I2
I4
I300
tp116
(dp117
g4
F0.97121951219512181
sg5
F0.95555555555555571
sg6
F0.97839602925809843
sg7
F0.96683806259125271
ss(F0.0030000000000000001
I300
F0
I2
I10
I300
tp118
(dp119
g4
F0.97073170731707303
sg5
F0.95555555555555571
sg6
F0.97727272727272751
sg7
F0.96629213483146104
ss(F0.0030000000000000001
I600
F0
I2
I6
I300
tp120
(dp121
g4
F0.97268292682926816
sg5
F0.95555555555555571
sg6
F0.98179205851619655
sg7
F0.96848204959517115
ss(F0.0030000000000000001
I600
F0
I2
I4
I300
tp122
(dp123
g4
F0.97219512195121938
sg5
F0.95555555555555571
sg6
F0.98066875653082564
sg7
F0.96793612183537947
ss(F0.0030000000000000001
I600
F0
I5
I8
I300
tp124
(dp125
g4
F0.98048780487804865
sg5
F0.95555555555555571
sg6
F0.99999999999999989
sg7
F0.97727272727272751
ss(F0.0030000000000000001
I900
F0
I2
I2
I300
tp126
(dp127
g4
F0.89317073170731709
sg5
F0.76444444444444448
sg6
F0.79203239289446192
sg7
F0.77797187260146716
ss(F0.0030000000000000001
I100
F0
I4
I10
I300
tp128
(dp129
g4
F0.97121951219512181
sg5
F0.95444444444444465
sg6
F0.97959594002794315
sg7
F0.9668179779941839
ss(F0.0030000000000000001
I100
F0
I2
I4
I300
tp130
(dp131
g4
F0.86975609756097549
sg5
F0.72777777777777763
sg6
F0.87573418763716471
sg7
F0.78420072444936006
ss(F0.0030000000000000001
I300
F0
I3
I6
I300
tp132
(dp133
g4
F0.97365853658536572
sg5
F0.95444444444444443
sg6
F0.98526557711950968
sg7
F0.96956012821526616
ss(F0.0030000000000000001
I900
F0
I4
I6
I300
tp134
(dp135
g4
F0.9765853658536584
sg5
F0.95555555555555571
sg6
F0.99090909090909096
sg7
F0.97288049029622092
ss(F0.0030000000000000001
I600
F0
I5
I6
I300
tp136
(dp137
g4
F0.97853658536585353
sg5
F0.95555555555555571
sg6
F0.99545454545454537
sg7
F0.97507660878447422
ss(F0.0030000000000000001
I100
F0
I2
I2
I300
tp138
(dp139
g4
F0.7960975609756098
sg5
F0.58666666666666667
sg6
F0.64861740941319757
sg7
F0.59851784799180108
ss(F0.0030000000000000001
I600
F0
I3
I4
I300
tp140
(dp141
g4
F0.97609756097560962
sg5
F0.95555555555555571
sg6
F0.98973354231974919
sg7
F0.97232215508734265
ss(F0.0030000000000000001
I600
F0
I5
I4
I300
tp142
(dp143
g4
F0.89365853658536587
sg5
F0.76333333333333331
sg6
F0.7942656314548856
sg7
F0.77847949596902177
ss(F0.0030000000000000001
I1200
F0
I2
I6
I300
tp144
(dp145
g4
F0.97463414634146328
sg5
F0.95555555555555571
sg6
F0.98636363636363644
sg7
F0.97068437180796763
ss(F0.0030000000000000001
I900
F0
I5
I2
I300
tp146
(dp147
g4
F0.72780487804878058
sg5
F0.38222222222222224
sg6
F0.39770114942528734
sg7
F0.38980482794042115
ss(F0.0030000000000000001
I100
F0
I4
I6
I300
tp148
(dp149
g4
F0.96048780487804863
sg5
F0.93444444444444452
sg6
F0.97547123923549506
sg7
F0.95374416788032823
ss(F0.0030000000000000001
I600
F0
I3
I6
I300
tp150
(dp151
g4
F0.97707317073170719
sg5
F0.95555555555555571
sg6
F0.99203239289446188
sg7
F0.97342641805601271
ss(F0.0030000000000000001
I1200
F0
I5
I2
I300
tp152
(dp153
g4
F0.72780487804878058
sg5
F0.38222222222222224
sg6
F0.39772727272727271
sg7
F0.38981103166496428
ss(F0.0030000000000000001
I900
F0
I3
I2
I300
tp154
(dp155
g4
F0.89365853658536587
sg5
F0.76444444444444448
sg6
F0.79318181818181821
sg7
F0.77852400408580202
ss(F0.0030000000000000001
I1200
F0
I5
I6
I300
tp156
(dp157
g4
F0.97756097560975597
sg5
F0.95555555555555571
sg6
F0.99314232946951475
sg7
F0.97396592568226559
ss(F0.0030000000000000001
I600
F0
I4
I6
I300
tp158
(dp159
g4
F0.97853658536585353
sg5
F0.95555555555555571
sg6
F0.99545454545454548
sg7
F0.97507660878447422
ss(F0.0030000000000000001
I1200
F0
I3
I4
I300
tp160
(dp161
g4
F0.9741463414634145
sg5
F0.95555555555555571
sg6
F0.98521421107628016
sg7
F0.97013224032363266
ss(F0.0030000000000000001
I1200
F0
I5
I4
I300
tp162
(dp163
g4
F0.97756097560975597
sg5
F0.95555555555555571
sg6
F0.99318181818181817
sg7
F0.97397854954034757
ss(F0.0030000000000000001
I100
F0
I3
I4
I300
tp164
(dp165
g4
F0.92682926829268275
sg5
F0.86777777777777776
sg6
F0.9710765321187933
sg7
F0.91096985424819255
ss(F0.0030000000000000001
I1200
F0
I3
I6
I300
tp166
(dp167
g4
F0.9765853658536584
sg5
F0.95555555555555571
sg6
F0.99090909090909085
sg7
F0.97288049029622092
ss(F0.0030000000000000001
I300
F0
I5
I2
I300
tp168
(dp169
g4
F0.72731707317073169
sg5
F0.38111111111111112
sg6
F0.39768778401496929
sg7
F0.38922059578839241
ss(F0.0030000000000000001
I100
F0
I5
I4
I300
tp170
(dp171
g4
F0.90195121951219503
sg5
F0.81111111111111123
sg6
F0.86823141813049831
sg7
F0.83589039716763303
ss(F0.0030000000000000001
I1200
F0
I4
I6
I300
tp172
(dp173
g4
F0.9741463414634145
sg5
F0.95555555555555571
sg6
F0.98526557711950991
sg7
F0.97014454379968185
ss(F0.0030000000000000001
I100
F0
I3
I6
I300
tp174
(dp175
g4
F0.96195121951219498
sg5
F0.94222222222222229
sg6
F0.97163245298414769
sg7
F0.95623945861526904
ss(F0.0030000000000000001
I900
F0
I2
I8
I300
tp176
(dp177
g4
F0.97365853658536572
sg5
F0.95555555555555571
sg6
F0.98409090909090924
sg7
F0.96958631256384098
ss(F0.0030000000000000001
I600
F0
I2
I2
I300
tp178
(dp179
g4
F0.92975609756097555
sg5
F0.85555555555555574
sg6
F0.88397244295399879
sg7
F0.86950992018836248
ss(F0.0030000000000000001
I600
F0
I3
I10
I300
tp180
(dp181
g4
F0.97609756097560962
sg5
F0.95555555555555571
sg6
F0.98975966562173456
sg7
F0.97232835881188606
ss(F0.0030000000000000001
I100
F0
I5
I10
I300
tp182
(dp183
g4
F0.97219512195121938
sg5
F0.95555555555555571
sg6
F0.98072012257405528
sg7
F0.96794842531142855
ss(F0.0030000000000000001
I900
F0
I4
I8
I300
tp184
(dp185
g4
F0.97999999999999987
sg5
F0.95666666666666678
sg6
F0.99771421107628
sg7
F0.97674613204988392
ss(F0.0030000000000000001
I300
F0
I4
I10
I300
tp186
(dp187
g4
F0.97463414634146328
sg5
F0.95444444444444465
sg6
F0.98746081504702199
sg7
F0.97064628382472629
ss(F0.0030000000000000001
I900
F0
I2
I6
I300
tp188
(dp189
g4
F0.97365853658536572
sg5
F0.95555555555555571
sg6
F0.98409090909090913
sg7
F0.96958631256384098
ss(F0.0030000000000000001
I100
F0
I2
I8
I300
tp190
(dp191
g4
F0.95658536585365839
sg5
F0.91999999999999993
sg6
F0.98144354438363279
sg7
F0.94895858895349194
ss(F0.0030000000000000001
I100
F0
I5
I8
I300
tp192
(dp193
g4
F0.97121951219512181
sg5
F0.95333333333333337
sg6
F0.98062838725778112
sg7
F0.96676776996728042
ss(F0.0030000000000000001
I900
F0
I4
I2
I300
tp194
(dp195
g4
F0.85365853658536583
sg5
F0.66888888888888887
sg6
F0.69772727272727264
sg7
F0.68299284984678255
ss(F0.0030000000000000001
I600
F0
I5
I2
I300
tp196
(dp197
g4
F0.85317073170731705
sg5
F0.66888888888888887
sg6
F0.69655172413793098
sg7
F0.6824345146379045
ss(F0.0030000000000000001
I1200
F0
I4
I10
I300
tp198
(dp199
g4
F0.97999999999999987
sg5
F0.95999999999999996
sg6
F0.99431818181818188
sg7
F0.97682908883156472
ss(F0.0030000000000000001
I100
F0
I4
I8
I300
tp200
(dp201
g4
F0.96878048780487791
sg5
F0.948888888888889
sg6
F0.97971821750238264
sg7
F0.96391229626694575
ss(F0.0030000000000000001
I300
F0
I2
I4
I300
tp202
(dp203
g4
F0.97073170731707303
sg5
F0.94222222222222207
sg6
F0.99084317513547659
sg7
F0.96577979281352955
ss(F0.0030000000000000001
I100
F0
I2
I6
I300
tp204
(dp205
g4
F0.93365853658536568
sg5
F0.86777777777777787
sg6
F0.98132054943560454
sg7
F0.91678660012349389
ss.