(dp1
(F0.001
I1200
F0.5
I10
I5
I300
tp2
(dp3
S'acc'
p4
F0.94048780487804873
sS'rec'
p5
F0.8933333333333332
sS'prec'
p6
F0.87244524186088146
sS'f1'
p7
F0.88255189122076649
ss(F0.001
I800
F0.10000000000000001
I7
I7
I300
tp8
(dp9
g4
F0.9970731707317072
sg5
F0.99444444444444435
sg6
F0.99890109890109879
sg7
F0.99664794065290541
ss(F0.001
I300
F0.10000000000000001
I7
I10
I300
tp10
(dp11
g4
F0.99756097560975598
sg5
F0.99777777777777765
sg6
F0.99677419354838703
sg7
F0.9972370602320868
ss(F0.001
I1200
F0.29999999999999999
I3
I7
I300
tp12
(dp13
g4
F0.99951219512195111
sg5
F0.99888888888888883
sg6
F0.99999999999999989
sg7
F0.99944134078212277
ss(F0.001
I300
F0
I10
I7
I300
tp14
(dp15
g4
F0.96975609756097547
sg5
F0.96999999999999986
sg6
F0.96653445314240483
sg7
F0.96629878848432382
ss(F0.001
I800
F0.29999999999999999
I7
I15
I300
tp16
(dp17
g4
F0.99902439024390233
sg5
F0.99999999999999989
sg6
F0.99782608695652164
sg7
F0.99890109890109879
ss(F0.001
I800
F0.10000000000000001
I2
I7
I300
tp18
(dp19
g4
F0.99658536585365842
sg5
F0.99666666666666659
sg6
F0.99574468085106371
sg7
F0.99614383223302672
ss(F0.001
I1200
F0.5
I2
I3
I300
tp20
(dp21
g4
F0.96682926829268279
sg5
F0.96666666666666656
sg6
F0.96061992661029949
sg7
F0.96229530037833699
ss(F0.001
I300
F0.29999999999999999
I10
I5
I300
tp22
(dp23
g4
F0.92390243902439018
sg5
F0.85666666666666669
sg6
F0.87217441941315532
sg7
F0.86315452488538469
ss(F0.001
I500
F0.10000000000000001
I3
I3
I300
tp24
(dp25
g4
F0.96634146341463401
sg5
F0.95777777777777773
sg6
F0.97042880404123277
sg7
F0.96224294104915087
ss(F0.001
I1000
F0
I3
I15
I300
tp26
(dp27
g4
F0.99999999999999989
sg5
F0.99999999999999989
sg6
F0.99999999999999989
sg7
F0.99999999999999989
ss(F0.001
I1200
F0.29999999999999999
I10
I15
I300
tp28
(dp29
g4
F0.99999999999999989
sg5
F0.99999999999999989
sg6
F0.99999999999999989
sg7
F0.99999999999999989
ss(F0.001
I800
F0.5
I2
I15
I300
tp30
(dp31
g4
F0.99999999999999989
sg5
F0.99999999999999989
sg6
F0.99999999999999989
sg7
F0.99999999999999989
ss(F0.001
I300
F0.10000000000000001
I7
I5
I300
tp32
(dp33
g4
F0.96975609756097547
sg5
F0.95333333333333325
sg6
F0.97957388673649959
sg7
F0.96508392708585677
ss(F0.001
I800
F0.75
I10
I15
I300
tp34
(dp35
g4
F0.99219512195121939
sg5
F0.99000000000000021
sg6
F0.99225885225885235
sg7
F0.9911109739326659
ss(F0.001
I500
F0
I7
I5
I300
tp36
(dp37
g4
F0.96243902439024376
sg5
F0.93333333333333324
sg6
F0.9791951134213529
sg7
F0.94993615155154898
ss(F0.001
I500
F0.10000000000000001
I3
I5
I300
tp38
(dp39
g4
F0.98829268292682915
sg5
F0.99222222222222212
sg6
F0.98178510016453235
sg7
F0.98676003780212229
ss(F0.001
I500
F0.29999999999999999
I2
I10
I300
tp40
(dp41
g4
F0.99951219512195111
sg5
F0.99888888888888883
sg6
F0.99999999999999989
sg7
F0.99944134078212288
ss(F0.001
I800
F0.10000000000000001
I10
I7
I300
tp42
(dp43
g4
F0.99609756097560964
sg5
F0.99222222222222212
sg6
F0.99890109890109879
sg7
F0.99552434514728749
ss(F0.001
I300
F0.5
I2
I10
I300
tp44
(dp45
g4
F0.98390243902439012
sg5
F0.98555555555555541
sg6
F0.97793434866712825
sg7
F0.98170612487813624
ss(F0.001
I1200
F0.10000000000000001
I2
I10
I300
tp46
(dp47
g4
F0.99999999999999989
sg5
F0.99999999999999989
sg6
F0.99999999999999989
sg7
F0.99999999999999989
ss(F0.001
I300
F0.10000000000000001
I7
I15
I300
tp48
(dp49
g4
F0.99999999999999989
sg5
F0.99999999999999989
sg6
F0.99999999999999989
sg7
F0.99999999999999989
ss(F0.001
I1200
F0.75
I3
I3
I300
tp50
(dp51
g4
F0.90292682926829249
sg5
F0.89000000000000001
sg6
F0.89733461660221847
sg7
F0.8894636980593722
ss(F0.001
I300
F0.5
I10
I7
I300
tp52
(dp53
g4
F0.95560975609756083
sg5
F0.97444444444444445
sg6
F0.93198130404729052
sg7
F0.95089731113709242
ss(F0.001
I800
F0.29999999999999999
I5
I7
I300
tp54
(dp55
g4
F0.99609756097560964
sg5
F0.99999999999999989
sg6
F0.99146402796288369
sg7
F0.99564591001055081
ss(F0.001
I1000
F0.5
I10
I10
I300
tp56
(dp57
g4
F0.99951219512195111
sg5
F0.99999999999999989
sg6
F0.99890109890109879
sg7
F0.99944751381215458
ss(F0.001
I1200
F0.75
I7
I15
I300
tp58
(dp59
g4
F0.99804878048780477
sg5
F0.99666666666666659
sg6
F0.99888888888888872
sg7
F0.99777157045313458
ss(F0.001
I300
F0.5
I3
I7
I300
tp60
(dp61
g4
F0.95073170731707302
sg5
F0.93888888888888888
sg6
F0.94863398559938106
sg7
F0.94255068652516794
ss(F0.001
I1200
F0.75
I5
I10
I300
tp62
(dp63
g4
F0.99073170731707305
sg5
F0.98777777777777787
sg6
F0.99109862671660431
sg7
F0.98942892613283684
ss(F0.001
I500
F0.75
I2
I10
I300
tp64
(dp65
g4
F0.9512195121951218
sg5
F0.95888888888888879
sg6
F0.93280378648851292
sg7
F0.9453770610901796
ss(F0.001
I500
F0
I3
I7
I300
tp66
(dp67
g4
F0.9970731707317072
sg5
F0.99555555555555553
sg6
F0.9978021978021977
sg7
F0.99664145315219499
ss(F0.001
I500
F0.29999999999999999
I5
I7
I300
tp68
(dp69
g4
F0.98926829268292671
sg5
F0.97888888888888881
sg6
F0.99677419354838703
sg7
F0.98742844779189554
ss(F0.001
I500
F0.75
I5
I3
I300
tp70
(dp71
g4
F0.84390243902439011
sg5
F0.82000000000000006
sg6
F0.84367769360605349
sg7
F0.82130524781361436
ss(F0.001
I1000
F0.10000000000000001
I7
I7
I300
tp72
(dp73
g4
F0.99804878048780477
sg5
F0.99666666666666659
sg6
F0.99890109890109879
sg7
F0.99776525908865965
ss(F0.001
I500
F0.10000000000000001
I2
I15
I300
tp74
(dp75
g4
F0.99999999999999989
sg5
F0.99999999999999989
sg6
F0.99999999999999989
sg7
F0.99999999999999989
ss(F0.001
I800
F0.29999999999999999
I3
I3
I300
tp76
(dp77
g4
F0.95073170731707302
sg5
F0.95999999999999985
sg6
F0.9357504839880616
sg7
F0.94275875447148128
ss(F0.001
I1000
F0.5
I5
I10
I300
tp78
(dp79
g4
F0.99999999999999989
sg5
F0.99999999999999989
sg6
F0.99999999999999989
sg7
F0.99999999999999989
ss(F0.001
I500
F0.10000000000000001
I10
I3
I300
tp80
(dp81
g4
F0.77560975609756111
sg5
F0.53000000000000003
sg6
F0.56234906336908708
sg7
F0.5414375643846876
ss(F0.001
I1200
F0.10000000000000001
I3
I3
I300
tp82
(dp83
g4
F0.9717073170731706
sg5
F0.98888888888888882
sg6
F0.95261928860613065
sg7
F0.96941542000142555
ss(F0.001
I1200
F0
I5
I10
I300
tp84
(dp85
g4
F0.99853658536585355
sg5
F0.99999999999999989
sg6
F0.99672718585762055
sg7
F0.99834861271325348
ss(F0.001
I500
F0.75
I5
I10
I300
tp86
(dp87
g4
F0.95317073170731692
sg5
F0.94888888888888889
sg6
F0.94499402552719647
sg7
F0.94665228485792152
ss(F0.001
I1000
F0.5
I2
I5
I300
tp88
(dp89
g4
F0.98829268292682915
sg5
F0.98444444444444446
sg6
F0.98947368421052617
sg7
F0.98669112287202054
ss(F0.001
I1000
F0.75
I7
I7
I300
tp90
(dp91
g4
F0.97560975609756084
sg5
F0.97666666666666657
sg6
F0.96892195152272842
sg7
F0.97248538413262087
ss(F0.001
I300
F0.5
I5
I10
I300
tp92
(dp93
g4
F0.98878048780487793
sg5
F0.99666666666666659
sg6
F0.97858975429276973
sg7
F0.98741758067018104
ss(F0.001
I1200
F0.5
I7
I5
I300
tp94
(dp95
g4
F0.98048780487804865
sg5
F0.9622222222222222
sg6
F0.99357076780758546
sg7
F0.97692730012782691
ss(F0.001
I1000
F0.10000000000000001
I3
I3
I300
tp96
(dp97
g4
F0.95073170731707302
sg5
F0.9555555555555556
sg6
F0.94504798708020754
sg7
F0.94662210739756047
ss(F0.001
I800
F0
I10
I15
I300
tp98
(dp99
g4
F0.99999999999999989
sg5
F0.99999999999999989
sg6
F0.99999999999999989
sg7
F0.99999999999999989
ss(F0.001
I1000
F0.10000000000000001
I7
I10
I300
tp100
(dp101
g4
F0.99951219512195111
sg5
F0.99999999999999989
sg6
F0.99890109890109879
sg7
F0.99944751381215458
ss(F0.001
I1000
F0.29999999999999999
I3
I5
I300
tp102
(dp103
g4
F0.99414634146341452
sg5
F0.98666666666666658
sg6
F0.99999999999999989
sg7
F0.99321384671318014
ss(F0.001
I800
F0.29999999999999999
I3
I15
I300
tp104
(dp105
g4
F0.99999999999999989
sg5
F0.99999999999999989
sg6
F0.99999999999999989
sg7
F0.99999999999999989
ss(F0.001
I800
F0.75
I5
I5
I300
tp106
(dp107
g4
F0.93365853658536568
sg5
F0.93333333333333335
sg6
F0.91997002573054087
sg7
F0.92478564985302336
ss(F0.001
I300
F0.5
I10
I3
I300
tp108
(dp109
g4
F0.65756097560975624
sg5
F0.25
sg6
F0.27212523489119234
sg7
F0.25563710842173415
ss(F0.001
I1000
F0.75
I7
I15
I300
tp110
(dp111
g4
F0.99414634146341452
sg5
F0.99111111111111128
sg6
F0.99557997557997557
sg7
F0.99332702312485632
ss(F0.001
I300
F0.29999999999999999
I3
I10
I300
tp112
(dp113
g4
F0.99658536585365842
sg5
F0.99555555555555553
sg6
F0.99677419354838703
sg7
F0.99610708126559055
ss(F0.001
I1000
F0.5
I2
I7
I300
tp114
(dp115
g4
F0.99804878048780477
sg5
F0.99888888888888883
sg6
F0.99672718585762055
sg7
F0.99778995349537636
ss(F0.001
I500
F0.5
I10
I10
I300
tp116
(dp117
g4
F0.99219512195121939
sg5
F0.99999999999999989
sg6
F0.98335857690696393
sg7
F0.99140692052565971
ss(F0.001
I1200
F0.10000000000000001
I10
I10
I300
tp118
(dp119
g4
F0.99999999999999989
sg5
F0.99999999999999989
sg6
F0.99999999999999989
sg7
F0.99999999999999989
ss(F0.001
I800
F0.10000000000000001
I7
I5
I300
tp120
(dp121
g4
F0.98195121951219499
sg5
F0.97777777777777775
sg6
F0.9818089893188563
sg7
F0.9790190230953324
ss(F0.001
I1000
F0.29999999999999999
I10
I7
I300
tp122
(dp123
g4
F0.99073170731707305
sg5
F0.99888888888888872
sg6
F0.98095870881394753
sg7
F0.98968753129758258
ss(F0.001
I500
F0.29999999999999999
I2
I7
I300
tp124
(dp125
g4
F0.9970731707317072
sg5
F0.99555555555555553
sg6
F0.9978021978021977
sg7
F0.99662230035158206
ss(F0.001
I800
F0
I7
I10
I300
tp126
(dp127
g4
F0.99951219512195111
sg5
F0.99888888888888883
sg6
F0.99999999999999989
sg7
F0.99944134078212277
ss(F0.001
I300
F0.29999999999999999
I10
I3
I300
tp128
(dp129
g4
F0.67121951219512199
sg5
F0.28222222222222226
sg6
F0.2729367727074149
sg7
F0.27609388129236745
ss(F0.001
I500
F0
I7
I15
I300
tp130
(dp131
g4
F0.99951219512195111
sg5
F0.99999999999999989
sg6
F0.99890109890109879
sg7
F0.99944751381215458
ss(F0.001
I1000
F0.29999999999999999
I2
I5
I300
tp132
(dp133
g4
F0.99317073170731696
sg5
F0.99555555555555542
sg6
F0.98912614766703844
sg7
F0.99224506543160129
ss(F0.001
I800
F0.29999999999999999
I2
I3
I300
tp134
(dp135
g4
F0.96243902439024376
sg5
F0.95333333333333325
sg6
F0.9620117526293831
sg7
F0.95574769495051937
ss(F0.001
I1200
F0.75
I7
I10
I300
tp136
(dp137
g4
F0.99317073170731696
sg5
F0.99222222222222234
sg6
F0.99224664224664239
sg7
F0.9922221536329997
ss(F0.001
I1000
F0.5
I3
I15
I300
tp138
(dp139
g4
F0.99999999999999989
sg5
F0.99999999999999989
sg6
F0.99999999999999989
sg7
F0.99999999999999989
ss(F0.001
I800
F0.29999999999999999
I10
I15
I300
tp140
(dp141
g4
F0.99999999999999989
sg5
F0.99999999999999989
sg6
F0.99999999999999989
sg7
F0.99999999999999989
ss(F0.001
I500
F0
I7
I10
I300
tp142
(dp143
g4
F0.99951219512195111
sg5
F0.99999999999999989
sg6
F0.99890109890109879
sg7
F0.99944751381215458
ss(F0.001
I300
F0.10000000000000001
I5
I5
I300
tp144
(dp145
g4
F0.98243902439024378
sg5
F0.98333333333333328
sg6
F0.97789763790940909
sg7
F0.98006484740316091
ss(F0.001
I1000
F0.29999999999999999
I2
I7
I300
tp146
(dp147
g4
F0.99658536585365842
sg5
F0.99777777777777765
sg6
F0.99460028050490878
sg7
F0.9961444362030496
ss(F0.001
I300
F0.29999999999999999
I3
I7
I300
tp148
(dp149
g4
F0.9868292682926828
sg5
F0.97888888888888892
sg6
F0.99118276067958533
sg7
F0.98474547099141108
ss(F0.001
I300
F0
I10
I15
I300
tp150
(dp151
g4
F0.99804878048780477
sg5
F0.99999999999999989
sg6
F0.99567529244948594
sg7
F0.99780816954985951
ss(F0.001
I300
F0
I3
I3
I300
tp152
(dp153
g4
F0.93609756097560959
sg5
F0.89111111111111108
sg6
F0.96332507113889443
sg7
F0.92056910093594579
ss(F0.001
I1000
F0
I7
I7
I300
tp154
(dp155
g4
F0.99951219512195111
sg5
F0.99888888888888872
sg6
F0.99999999999999989
sg7
F0.99944134078212277
ss(F0.001
I800
F0.29999999999999999
I7
I10
I300
tp156
(dp157
g4
F0.99756097560975598
sg5
F0.99777777777777765
sg6
F0.99677419354838692
sg7
F0.9972370602320868
ss(F0.001
I1000
F0.75
I5
I15
I300
tp158
(dp159
g4
F0.99560975609756086
sg5
F0.99555555555555553
sg6
F0.99449328449328445
sg7
F0.99500913951390813
ss(F0.001
I1000
F0.75
I5
I5
I300
tp160
(dp161
g4
F0.95560975609756083
sg5
F0.96222222222222209
sg6
F0.94023092682680232
sg7
F0.95005242870719875
ss(F0.001
I1000
F0.75
I2
I15
I300
tp162
(dp163
g4
F0.99512195121951208
sg5
F0.9933333333333334
sg6
F0.99557997557997557
sg7
F0.99443816853057876
ss(F0.001
I1200
F0.75
I10
I7
I300
tp164
(dp165
g4
F0.9843902439024389
sg5
F0.9833333333333335
sg6
F0.98147941210762768
sg7
F0.98229344893152293
ss(F0.001
I300
F0.5
I10
I5
I300
tp166
(dp167
g4
F0.91073170731707298
sg5
F0.93444444444444441
sg6
F0.88168372051445676
sg7
F0.89892837777947732
ss(F0.001
I800
F0.10000000000000001
I2
I10
I300
tp168
(dp169
g4
F0.99999999999999989
sg5
F0.99999999999999989
sg6
F0.99999999999999989
sg7
F0.99999999999999989
ss(F0.001
I300
F0.75
I7
I5
I300
tp170
(dp171
g4
F0.85219512195121938
sg5
F0.82111111111111112
sg6
F0.84928854400680698
sg7
F0.82671606513760776
ss(F0.001
I1200
F0.75
I5
I3
I300
tp172
(dp173
g4
F0.90439024390243883
sg5
F0.8666666666666667
sg6
F0.92122096895425865
sg7
F0.88480418921865855
ss(F0.001
I500
F0.29999999999999999
I5
I5
I300
tp174
(dp175
g4
F0.98341463414634134
sg5
F0.97666666666666657
sg6
F0.98592717027037091
sg7
F0.98075605490368511
ss(F0.001
I500
F0.10000000000000001
I2
I3
I300
tp176
(dp177
g4
F0.96487804878048766
sg5
F0.97555555555555562
sg6
F0.95050922432807972
sg7
F0.96167683881051247
ss(F0.001
I800
F0.29999999999999999
I3
I5
I300
tp178
(dp179
g4
F0.99560975609756086
sg5
F0.99777777777777776
sg6
F0.99251887439945075
sg7
F0.99506942425847233
ss(F0.001
I800
F0.5
I10
I10
I300
tp180
(dp181
g4
F0.99756097560975598
sg5
F0.99444444444444435
sg6
F0.99999999999999989
sg7
F0.99714285714285711
ss(F0.001
I1200
F0.10000000000000001
I5
I3
I300
tp182
(dp183
g4
F0.94926829268292667
sg5
F0.9344444444444443
sg6
F0.95257699237532101
sg7
F0.93830774454835419
ss(F0.001
I1000
F0.29999999999999999
I7
I10
I300
tp184
(dp185
g4
F0.99951219512195111
sg5
F0.99999999999999989
sg6
F0.99890109890109879
sg7
F0.99944751381215458
ss(F0.001
I800
F0.75
I10
I3
I300
tp186
(dp187
g4
F0.7551219512195122
sg5
F0.55111111111111111
sg6
F0.50507099324129945
sg7
F0.52400012983177069
ss(F0.001
I500
F0.10000000000000001
I5
I15
I300
tp188
(dp189
g4
F0.99999999999999989
sg5
F0.99999999999999989
sg6
F0.99999999999999989
sg7
F0.99999999999999989
ss(F0.001
I300
F0.29999999999999999
I5
I7
I300
tp190
(dp191
g4
F0.99024390243902427
sg5
F0.99111111111111105
sg6
F0.98709295205413028
sg7
F0.9889539160647971
ss(F0.001
I1000
F0.29999999999999999
I2
I10
I300
tp192
(dp193
g4
F0.99999999999999989
sg5
F0.99999999999999989
sg6
F0.99999999999999989
sg7
F0.99999999999999989
ss(F0.001
I500
F0.29999999999999999
I10
I5
I300
tp194
(dp195
g4
F0.89463414634146343
sg5
F0.79222222222222216
sg6
F0.77048416336627379
sg7
F0.78059321261827463
ss(F0.001
I1000
F0.29999999999999999
I7
I15
I300
tp196
(dp197
g4
F0.99999999999999989
sg5
F0.99999999999999989
sg6
F0.99999999999999989
sg7
F0.99999999999999989
ss(F0.001
I800
F0.29999999999999999
I7
I7
I300
tp198
(dp199
g4
F0.99414634146341452
sg5
F0.99111111111111105
sg6
F0.99565217391304339
sg7
F0.99326280022155988
ss(F0.001
I1200
F0.5
I5
I7
I300
tp200
(dp201
g4
F0.99853658536585355
sg5
F0.99777777777777765
sg6
F0.99890109890109879
sg7
F0.99833019537640033
ss(F0.001
I1000
F0
I10
I3
I300
tp202
(dp203
g4
F0.78634146341463407
sg5
F0.54666666666666663
sg6
F0.5711798839458414
sg7
F0.55601417040227008
ss(F0.001
I1000
F0.29999999999999999
I3
I7
I300
tp204
(dp205
g4
F0.99902439024390233
sg5
F0.99999999999999989
sg6
F0.99782608695652164
sg7
F0.99890109890109879
ss(F0.001
I500
F0.10000000000000001
I5
I10
I300
tp206
(dp207
g4
F0.99999999999999989
sg5
F0.99999999999999989
sg6
F0.99999999999999989
sg7
F0.99999999999999989
ss(F0.001
I800
F0
I5
I10
I300
tp208
(dp209
g4
F0.99951219512195111
sg5
F0.99999999999999989
sg6
F0.99890109890109879
sg7
F0.99944751381215458
ss(F0.001
I300
F0.75
I10
I3
I300
tp210
(dp211
g4
F0.70731707317073167
sg5
F0.44111111111111106
sg6
F0.48993983776718236
sg7
F0.45785721770069582
ss(F0.001
I500
F0
I3
I3
I300
tp212
(dp213
g4
F0.92780487804878031
sg5
F0.87444444444444436
sg6
F0.96424508546778287
sg7
F0.90933665480749304
ss(F0.001
I1000
F0.10000000000000001
I2
I10
I300
tp214
(dp215
g4
F0.99999999999999989
sg5
F0.99999999999999989
sg6
F0.99999999999999989
sg7
F0.99999999999999989
ss(F0.001
I800
F0.10000000000000001
I2
I3
I300
tp216
(dp217
g4
F0.95999999999999985
sg5
F0.98444444444444434
sg6
F0.93597414989071981
sg7
F0.9573471036138842
ss(F0.001
I1200
F0.10000000000000001
I10
I3
I300
tp218
(dp219
g4
F0.69951219512195129
sg5
F0.38777777777777778
sg6
F0.34511278195488726
sg7
F0.36235704900863275
ss(F0.001
I300
F0.5
I3
I10
I300
tp220
(dp221
g4
F0.98585365853658524
sg5
F0.98777777777777775
sg6
F0.98029970108684827
sg7
F0.98397685542250823
ss(F0.001
I500
F0.10000000000000001
I2
I10
I300
tp222
(dp223
g4
F0.99999999999999989
sg5
F0.99999999999999989
sg6
F0.99999999999999989
sg7
F0.99999999999999989
ss(F0.001
I800
F0
I2
I3
I300
tp224
(dp225
g4
F0.95512195121951204
sg5
F0.93777777777777782
sg6
F0.96396633764034134
sg7
F0.94748458958041282
ss(F0.001
I1200
F0.75
I7
I5
I300
tp226
(dp227
g4
F0.95853658536585351
sg5
F0.97555555555555562
sg6
F0.93506011394101529
sg7
F0.95411938152644837
ss(F0.001
I300
F0.10000000000000001
I7
I7
I300
tp228
(dp229
g4
F0.9868292682926828
sg5
F0.97888888888888881
sg6
F0.99124802807854895
sg7
F0.98480461044478251
ss(F0.001
I1000
F0.5
I5
I5
I300
tp230
(dp231
g4
F0.98731707317073159
sg5
F0.9866666666666668
sg6
F0.98508716923249673
sg7
F0.9855759870393157
ss(F0.001
I1200
F0.29999999999999999
I10
I3
I300
tp232
(dp233
g4
F0.76048780487804901
sg5
F0.49222222222222223
sg6
F0.46469171142377008
sg7
F0.47784721679704817
ss(F0.001
I1200
F0
I5
I7
I300
tp234
(dp235
g4
F0.9970731707317072
sg5
F0.99777777777777765
sg6
F0.99574468085106371
sg7
F0.99670249145090362
ss(F0.001
I800
F0.75
I3
I7
I300
tp236
(dp237
g4
F0.95219512195121936
sg5
F0.95999999999999985
sg6
F0.93405966027313148
sg7
F0.94648480036639104
ss(F0.001
I1000
F0.5
I3
I7
I300
tp238
(dp239
g4
F0.99902439024390233
sg5
F0.99777777777777765
sg6
F0.99999999999999989
sg7
F0.99887640449438198
ss(F0.001
I1200
F0.10000000000000001
I2
I15
I300
tp240
(dp241
g4
F0.99999999999999989
sg5
F0.99999999999999989
sg6
F0.99999999999999989
sg7
F0.99999999999999989
ss(F0.001
I1200
F0.29999999999999999
I3
I15
I300
tp242
(dp243
g4
F0.99999999999999989
sg5
F0.99999999999999989
sg6
F0.99999999999999989
sg7
F0.99999999999999989
ss(F0.001
I300
F0.75
I3
I15
I300
tp244
(dp245
g4
F0.91512195121951201
sg5
F0.91555555555555546
sg6
F0.89417740761996722
sg7
F0.90358122339593094
ss(F0.001
I300
F0
I3
I15
I300
tp246
(dp247
g4
F0.99999999999999989
sg5
F0.99999999999999989
sg6
F0.99999999999999989
sg7
F0.99999999999999989
ss(F0.001
I1200
F0.5
I5
I3
I300
tp248
(dp249
g4
F0.96243902439024376
sg5
F0.95555555555555549
sg6
F0.9622210159845771
sg7
F0.95670379711954012
ss(F0.001
I300
F0.10000000000000001
I5
I7
I300
tp250
(dp251
g4
F0.99317073170731696
sg5
F0.99111111111111105
sg6
F0.99354687865326152
sg7
F0.99217566003537661
ss(F0.001
I500
F0.29999999999999999
I5
I15
I300
tp252
(dp253
g4
F0.99951219512195111
sg5
F0.99999999999999989
sg6
F0.99890109890109879
sg7
F0.99944751381215458
ss(F0.001
I1000
F0.75
I5
I7
I300
tp254
(dp255
g4
F0.97707317073170719
sg5
F0.97777777777777797
sg6
F0.97063303174586602
sg7
F0.97399534025425938
ss(F0.001
I1000
F0.10000000000000001
I7
I15
I300
tp256
(dp257
g4
F0.99902439024390233
sg5
F0.99999999999999989
sg6
F0.9978021978021977
sg7
F0.99889502762430926
ss(F0.001
I500
F0.10000000000000001
I2
I7
I300
tp258
(dp259
g4
F0.99853658536585355
sg5
F0.99777777777777765
sg6
F0.99890109890109879
sg7
F0.99833019537640044
ss(F0.001
I300
F0
I2
I10
I300
tp260
(dp261
g4
F0.99853658536585355
sg5
F0.99888888888888883
sg6
F0.9978021978021977
sg7
F0.99833636840643225
ss(F0.001
I300
F0.29999999999999999
I10
I10
I300
tp262
(dp263
g4
F0.99121951219512183
sg5
F0.98999999999999999
sg6
F0.99022548094984131
sg7
F0.98998518255528689
ss(F0.001
I500
F0.10000000000000001
I5
I5
I300
tp264
(dp265
g4
F0.99170731707317061
sg5
F0.98666666666666658
sg6
F0.99450549450549441
sg7
F0.9903728155263517
ss(F0.001
I800
F0
I10
I5
I300
tp266
(dp267
g4
F0.9614634146341462
sg5
F0.96999999999999986
sg6
F0.9521217571306958
sg7
F0.95834831227920703
ss(F0.001
I1200
F0.29999999999999999
I5
I3
I300
tp268
(dp269
g4
F0.94926829268292667
sg5
F0.93333333333333335
sg6
F0.95617249066863486
sg7
F0.94060116003979466
ss(F0.001
I1000
F0
I7
I10
I300
tp270
(dp271
g4
F0.99999999999999989
sg5
F0.99999999999999989
sg6
F0.99999999999999989
sg7
F0.99999999999999989
ss(F0.001
I1000
F0.29999999999999999
I7
I5
I300
tp272
(dp273
g4
F0.97999999999999987
sg5
F0.98333333333333317
sg6
F0.97313628620619497
sg7
F0.97751630275582757
ss(F0.001
I1200
F0.75
I7
I7
I300
tp274
(dp275
g4
F0.97804878048780475
sg5
F0.98777777777777787
sg6
F0.9640458996410779
sg7
F0.975485608954197
ss(F0.001
I300
F0.5
I7
I7
I300
tp276
(dp277
g4
F0.96585365853658522
sg5
F0.97222222222222232
sg6
F0.95309329162447021
sg7
F0.96125950243214509
ss(F0.001
I800
F0
I10
I7
I300
tp278
(dp279
g4
F0.98975609756097549
sg5
F0.97777777777777763
sg6
F0.99866666666666659
sg7
F0.98742424242424232
ss(F0.001
I800
F0
I2
I7
I300
tp280
(dp281
g4
F0.99853658536585355
sg5
F0.99888888888888872
sg6
F0.99782608695652164
sg7
F0.99834243968322167
ss(F0.001
I800
F0.29999999999999999
I3
I7
I300
tp282
(dp283
g4
F0.99902439024390233
sg5
F0.99777777777777765
sg6
F0.99999999999999989
sg7
F0.99887640449438186
ss(F0.001
I1200
F0.75
I5
I5
I300
tp284
(dp285
g4
F0.95707317073170717
sg5
F0.96444444444444444
sg6
F0.94196227305625058
sg7
F0.9520969173783258
ss(F0.001
I300
F0.29999999999999999
I2
I5
I300
tp286
(dp287
g4
F0.96341463414634132
sg5
F0.95111111111111102
sg6
F0.96566523579674524
sg7
F0.95785102100865349
ss(F0.001
I800
F0.75
I10
I10
I300
tp288
(dp289
g4
F0.97999999999999987
sg5
F0.98777777777777775
sg6
F0.96806032755277904
sg7
F0.977603985627435
ss(F0.001
I300
F0.29999999999999999
I5
I5
I300
tp290
(dp291
g4
F0.95902439024390229
sg5
F0.96111111111111114
sg6
F0.95032080853358525
sg7
F0.95330887714878088
ss(F0.001
I300
F0.10000000000000001
I5
I10
I300
tp292
(dp293
g4
F0.99853658536585355
sg5
F0.99999999999999989
sg6
F0.99677419354838703
sg7
F0.99836065573770483
ss(F0.001
I1000
F0.5
I3
I3
I300
tp294
(dp295
g4
F0.95268292682926814
sg5
F0.92999999999999994
sg6
F0.9639832897822086
sg7
F0.94553247638404492
ss(F0.001
I300
F0.29999999999999999
I7
I3
I300
tp296
(dp297
g4
F0.76926829268292685
sg5
F0.50555555555555554
sg6
F0.57101495094694377
sg7
F0.52865247481592281
ss(F0.001
I1200
F0.29999999999999999
I5
I15
I300
tp298
(dp299
g4
F0.99999999999999989
sg5
F0.99999999999999989
sg6
F0.99999999999999989
sg7
F0.99999999999999989
ss(F0.001
I300
F0.5
I3
I3
I300
tp300
(dp301
g4
F0.83268292682926814
sg5
F0.68666666666666676
sg6
F0.82265179152660917
sg7
F0.74344564792889201
ss(F0.001
I300
F0.75
I2
I10
I300
tp302
(dp303
g4
F0.87414634146341441
sg5
F0.84444444444444433
sg6
F0.87013702217966604
sg7
F0.85460378709324825
ss(F0.001
I800
F0.10000000000000001
I5
I3
I300
tp304
(dp305
g4
F0.93463414634146325
sg5
F0.90444444444444438
sg6
F0.94874643782727108
sg7
F0.92136219961261356
ss(F0.001
I300
F0.75
I7
I10
I300
tp306
(dp307
g4
F0.91365853658536567
sg5
F0.92666666666666664
sg6
F0.88617669211715033
sg7
F0.90413375738321511
ss(F0.001
I1000
F0.10000000000000001
I3
I15
I300
tp308
(dp309
g4
F0.99999999999999989
sg5
F0.99999999999999989
sg6
F0.99999999999999989
sg7
F0.99999999999999989
ss(F0.001
I500
F0.75
I10
I15
I300
tp310
(dp311
g4
F0.97707317073170719
sg5
F0.98444444444444446
sg6
F0.96443615117629256
sg7
F0.97423659167297849
ss(F0.001
I500
F0.29999999999999999
I2
I15
I300
tp312
(dp313
g4
F0.99999999999999989
sg5
F0.99999999999999989
sg6
F0.99999999999999989
sg7
F0.99999999999999989
ss(F0.001
I1000
F0.29999999999999999
I10
I5
I300
tp314
(dp315
g4
F0.98097560975609743
sg5
F0.98111111111111116
sg6
F0.97697319316742715
sg7
F0.97847008203222297
ss(F0.001
I1200
F0.75
I3
I7
I300
tp316
(dp317
g4
F0.98146341463414621
sg5
F0.98222222222222222
sg6
F0.97588812388424728
sg7
F0.9789667246433591
ss(F0.001
I1000
F0.5
I5
I15
I300
tp318
(dp319
g4
F0.99999999999999989
sg5
F0.99999999999999989
sg6
F0.99999999999999989
sg7
F0.99999999999999989
ss(F0.001
I800
F0
I3
I15
I300
tp320
(dp321
g4
F0.99999999999999989
sg5
F0.99999999999999989
sg6
F0.99999999999999989
sg7
F0.99999999999999989
ss(F0.001
I300
F0
I2
I3
I300
tp322
(dp323
g4
F0.91463414634146323
sg5
F0.87333333333333329
sg6
F0.93387220575464491
sg7
F0.89128157011524134
ss(F0.001
I1200
F0.10000000000000001
I3
I10
I300
tp324
(dp325
g4
F0.99999999999999989
sg5
F0.99999999999999989
sg6
F0.99999999999999989
sg7
F0.99999999999999989
ss(F0.001
I800
F0.5
I3
I10
I300
tp326
(dp327
g4
F0.99999999999999989
sg5
F0.99999999999999989
sg6
F0.99999999999999989
sg7
F0.99999999999999989
ss(F0.001
I1200
F0.5
I5
I15
I300
tp328
(dp329
g4
F0.99999999999999989
sg5
F0.99999999999999989
sg6
F0.99999999999999989
sg7
F0.99999999999999989
ss(F0.001
I500
F0
I7
I7
I300
tp330
(dp331
g4
F0.98487804878048768
sg5
F0.99777777777777765
sg6
F0.97015634243014137
sg7
F0.98338953853919364
ss(F0.001
I1200
F0.5
I3
I7
I300
tp332
(dp333
g4
F0.99951219512195111
sg5
F0.99999999999999989
sg6
F0.99890109890109879
sg7
F0.99944751381215458
ss(F0.001
I300
F0.29999999999999999
I2
I10
I300
tp334
(dp335
g4
F0.99804878048780477
sg5
F0.99777777777777765
sg6
F0.9978021978021977
sg7
F0.99777770918855513
ss(F0.001
I300
F0.5
I3
I5
I300
tp336
(dp337
g4
F0.92146341463414616
sg5
F0.89000000000000012
sg6
F0.92893745555501595
sg7
F0.90727261049114416
ss(F0.001
I300
F0.75
I7
I15
I300
tp338
(dp339
g4
F0.94536585365853643
sg5
F0.95444444444444443
sg6
F0.9239989908872005
sg7
F0.9388236032022742
ss(F0.001
I1000
F0.29999999999999999
I2
I15
I300
tp340
(dp341
g4
F0.99999999999999989
sg5
F0.99999999999999989
sg6
F0.99999999999999989
sg7
F0.99999999999999989
ss(F0.001
I300
F0.29999999999999999
I3
I15
I300
tp342
(dp343
g4
F0.99999999999999989
sg5
F0.99999999999999989
sg6
F0.99999999999999989
sg7
F0.99999999999999989
ss(F0.001
I1000
F0
I7
I15
I300
tp344
(dp345
g4
F0.99999999999999989
sg5
F0.99999999999999989
sg6
F0.99999999999999989
sg7
F0.99999999999999989
ss(F0.001
I1000
F0.10000000000000001
I2
I3
I300
tp346
(dp347
g4
F0.9717073170731706
sg5
F0.982222222222222
sg6
F0.95763560623429445
sg7
F0.9687239459165099
ss(F0.001
I1200
F0
I5
I5
I300
tp348
(dp349
g4
F0.99365853658536574
sg5
F0.99333333333333318
sg6
F0.99240247830710648
sg7
F0.99279227281612314
ss(F0.001
I500
F0
I2
I10
I300
tp350
(dp351
g4
F0.99999999999999989
sg5
F0.99999999999999989
sg6
F0.99999999999999989
sg7
F0.99999999999999989
ss(F0.001
I300
F0.5
I2
I5
I300
tp352
(dp353
g4
F0.92780487804878031
sg5
F0.90666666666666673
sg6
F0.92795992185121179
sg7
F0.91615316201201435
ss(F0.001
I300
F0.29999999999999999
I3
I5
I300
tp354
(dp355
g4
F0.95804878048780473
sg5
F0.93999999999999995
sg6
F0.96629683604816186
sg7
F0.94831259321958683
ss(F0.001
I300
F0.75
I3
I7
I300
tp356
(dp357
g4
F0.83512195121951194
sg5
F0.84888888888888892
sg6
F0.79979631984752442
sg7
F0.81844691721949714
ss(F0.001
I500
F0
I5
I15
I300
tp358
(dp359
g4
F0.99999999999999989
sg5
F0.99999999999999989
sg6
F0.99999999999999989
sg7
F0.99999999999999989
ss(F0.001
I800
F0.10000000000000001
I5
I10
I300
tp360
(dp361
g4
F0.99999999999999989
sg5
F0.99999999999999989
sg6
F0.99999999999999989
sg7
F0.99999999999999989
ss(F0.001
I1000
F0.10000000000000001
I10
I15
I300
tp362
(dp363
g4
F0.99999999999999989
sg5
F0.99999999999999989
sg6
F0.99999999999999989
sg7
F0.99999999999999989
ss(F0.001
I1000
F0.75
I2
I3
I300
tp364
(dp365
g4
F0.88829268292682906
sg5
F0.92555555555555546
sg6
F0.8428688948923394
sg7
F0.87914021556522171
ss(F0.001
I300
F0.5
I3
I15
I300
tp366
(dp367
g4
F0.99512195121951208
sg5
F0.99444444444444435
sg6
F0.9945291182247703
sg7
F0.99445634577974629
ss(F0.001
I300
F0.29999999999999999
I3
I3
I300
tp368
(dp369
g4
F0.91853658536585348
sg5
F0.87444444444444447
sg6
F0.94073902308670132
sg7
F0.90087283310847477
ss(F0.001
I800
F0.5
I10
I5
I300
tp370
(dp371
g4
F0.9843902439024389
sg5
F0.99555555555555553
sg6
F0.97058579591855165
sg7
F0.98264053421043329
ss(F0.001
I1200
F0.75
I10
I3
I300
tp372
(dp373
g4
F0.7678048780487805
sg5
F0.52444444444444438
sg6
F0.54912670746004077
sg7
F0.53273778115301085
ss(F0.001
I1200
F0.29999999999999999
I10
I10
I300
tp374
(dp375
g4
F0.99999999999999989
sg5
F0.99999999999999989
sg6
F0.99999999999999989
sg7
F0.99999999999999989
ss(F0.001
I500
F0.29999999999999999
I10
I15
I300
tp376
(dp377
g4
F0.99902439024390233
sg5
F0.99999999999999989
sg6
F0.99782608695652164
sg7
F0.99890109890109879
ss(F0.001
I500
F0.10000000000000001
I5
I7
I300
tp378
(dp379
g4
F0.99024390243902427
sg5
F0.97999999999999998
sg6
F0.9978021978021977
sg7
F0.98863462690887527
ss(F0.001
I1200
F0.75
I10
I15
I300
tp380
(dp381
g4
F0.9970731707317072
sg5
F0.99666666666666659
sg6
F0.99669108669108664
sg7
F0.99666659807744395
ss(F0.001
I800
F0
I7
I3
I300
tp382
(dp383
g4
F0.84731707317073168
sg5
F0.74666666666666659
sg6
F0.72269607156436388
sg7
F0.72911955091039382
ss(F0.001
I1200
F0.75
I5
I7
I300
tp384
(dp385
g4
F0.97951219512195109
sg5
F0.97222222222222221
sg6
F0.98102003895706535
sg7
F0.97653448983134838
ss(F0.001
I500
F0.5
I3
I7
I300
tp386
(dp387
g4
F0.99024390243902427
sg5
F0.99333333333333329
sg6
F0.98496808922823775
sg7
F0.98900815127415043
ss(F0.001
I1000
F0.29999999999999999
I3
I15
I300
tp388
(dp389
g4
F0.99999999999999989
sg5
F0.99999999999999989
sg6
F0.99999999999999989
sg7
F0.99999999999999989
ss(F0.001
I300
F0
I10
I10
I300
tp390
(dp391
g4
F0.99414634146341452
sg5
F0.98999999999999988
sg6
F0.99672718585762055
sg7
F0.99317877443306912
ss(F0.001
I800
F0.5
I10
I3
I300
tp392
(dp393
g4
F0.68341463414634152
sg5
F0.29333333333333333
sg6
F0.28657357679914069
sg7
F0.28959370228629217
ss(F0.001
I800
F0.29999999999999999
I7
I5
I300
tp394
(dp395
g4
F0.98780487804878037
sg5
F0.98333333333333328
sg6
F0.98942529244948596
sg7
F0.98596424895599333
ss(F0.001
I300
F0.29999999999999999
I7
I5
I300
tp396
(dp397
g4
F0.97707317073170719
sg5
F0.98333333333333328
sg6
F0.96711585835092406
sg7
F0.97435611882776152
ss(F0.001
I800
F0
I7
I15
I300
tp398
(dp399
g4
F0.99999999999999989
sg5
F0.99999999999999989
sg6
F0.99999999999999989
sg7
F0.99999999999999989
ss(F0.001
I1000
F0.5
I3
I10
I300
tp400
(dp401
g4
F0.99999999999999989
sg5
F0.99999999999999989
sg6
F0.99999999999999989
sg7
F0.99999999999999989
ss(F0.001
I1000
F0.75
I10
I7
I300
tp402
(dp403
g4
F0.96634146341463401
sg5
F0.98111111111111116
sg6
F0.94556825352902429
sg7
F0.96262529564440091
ss(F0.001
I800
F0.29999999999999999
I7
I3
I300
tp404
(dp405
g4
F0.90146341463414625
sg5
F0.84222222222222221
sg6
F0.83800804257645733
sg7
F0.83644828815475336
ss(F0.001
I1000
F0.5
I7
I10
I300
tp406
(dp407
g4
F0.99804878048780477
sg5
F0.99888888888888883
sg6
F0.99677419354838703
sg7
F0.99780199651982771
ss(F0.001
I500
F0
I10
I10
I300
tp408
(dp409
g4
F0.9970731707317072
sg5
F0.99888888888888883
sg6
F0.99464577975216262
sg7
F0.99671494155079932
ss(F0.001
I300
F0.10000000000000001
I3
I10
I300
tp410
(dp411
g4
F0.99902439024390233
sg5
F0.99777777777777765
sg6
F0.99999999999999989
sg7
F0.99887640449438186
ss(F0.001
I1200
F0.29999999999999999
I2
I5
I300
tp412
(dp413
g4
F0.99560975609756086
sg5
F0.99777777777777765
sg6
F0.99237935977066405
sg7
F0.99503349207969716
ss(F0.001
I1200
F0.29999999999999999
I2
I15
I300
tp414
(dp415
g4
F0.99999999999999989
sg5
F0.99999999999999989
sg6
F0.99999999999999989
sg7
F0.99999999999999989
ss(F0.001
I1200
F0
I5
I15
I300
tp416
(dp417
g4
F0.99999999999999989
sg5
F0.99999999999999989
sg6
F0.99999999999999989
sg7
F0.99999999999999989
ss(F0.001
I300
F0
I3
I7
I300
tp418
(dp419
g4
F0.98926829268292671
sg5
F0.98666666666666669
sg6
F0.98937828475871947
sg7
F0.98772572143338111
ss(F0.001
I800
F0.29999999999999999
I2
I5
I300
tp420
(dp421
g4
F0.98292682926829256
sg5
F0.98555555555555552
sg6
F0.97743585512746478
sg7
F0.98064731510220848
ss(F0.001
I1200
F0.5
I10
I10
I300
tp422
(dp423
g4
F0.99902439024390233
sg5
F0.99999999999999989
sg6
F0.99782608695652164
sg7
F0.99890109890109879
ss(F0.001
I300
F0.75
I10
I7
I300
tp424
(dp425
g4
F0.87902439024390222
sg5
F0.90888888888888897
sg6
F0.8380096904730755
sg7
F0.8684038745976993
ss(F0.001
I300
F0.75
I7
I7
I300
tp426
(dp427
g4
F0.87073170731707294
sg5
F0.91555555555555546
sg6
F0.81760854116068782
sg7
F0.86170879318460292
ss(F0.001
I300
F0.10000000000000001
I5
I15
I300
tp428
(dp429
g4
F0.99951219512195111
sg5
F0.99999999999999989
sg6
F0.99890109890109879
sg7
F0.99944751381215458
ss(F0.001
I800
F0
I10
I10
I300
tp430
(dp431
g4
F0.99853658536585355
sg5
F0.99999999999999989
sg6
F0.99677419354838692
sg7
F0.99836065573770483
ss(F0.001
I1200
F0.10000000000000001
I10
I15
I300
tp432
(dp433
g4
F0.99999999999999989
sg5
F0.99999999999999989
sg6
F0.99999999999999989
sg7
F0.99999999999999989
ss(F0.001
I1200
F0.5
I7
I3
I300
tp434
(dp435
g4
F0.84243902439024387
sg5
F0.65333333333333332
sg6
F0.68833781362007174
sg7
F0.66907608254917583
ss(F0.001
I800
F0.5
I10
I7
I300
tp436
(dp437
g4
F0.98878048780487793
sg5
F0.99666666666666648
sg6
F0.97890888190747083
sg7
F0.98748621990540553
ss(F0.001
I1000
F0.10000000000000001
I2
I5
I300
tp438
(dp439
g4
F0.99804878048780477
sg5
F0.99666666666666659
sg6
F0.99890109890109879
sg7
F0.99777153615852343
ss(F0.001
I800
F0.5
I7
I5
I300
tp440
(dp441
g4
F0.9741463414634145
sg5
F0.98777777777777775
sg6
F0.95656636077077584
sg7
F0.97129735536156625
ss(F0.001
I500
F0.5
I7
I10
I300
tp442
(dp443
g4
F0.99999999999999989
sg5
F0.99999999999999989
sg6
F0.99999999999999989
sg7
F0.99999999999999989
ss(F0.001
I800
F0
I5
I15
I300
tp444
(dp445
g4
F0.99999999999999989
sg5
F0.99999999999999989
sg6
F0.99999999999999989
sg7
F0.99999999999999989
ss(F0.001
I500
F0.75
I10
I5
I300
tp446
(dp447
g4
F0.89804878048780468
sg5
F0.89222222222222214
sg6
F0.88398353053425283
sg7
F0.88494771583676024
ss(F0.001
I300
F0.10000000000000001
I3
I15
I300
tp448
(dp449
g4
F0.99999999999999989
sg5
F0.99999999999999989
sg6
F0.99999999999999989
sg7
F0.99999999999999989
ss(F0.001
I1000
F0.10000000000000001
I5
I7
I300
tp450
(dp451
g4
F0.99804878048780477
sg5
F0.99999999999999989
sg6
F0.99562828475871945
sg7
F0.99779612652540817
ss(F0.001
I800
F0
I3
I10
I300
tp452
(dp453
g4
F0.99951219512195111
sg5
F0.99999999999999989
sg6
F0.99890109890109879
sg7
F0.99944751381215458
ss(F0.001
I1000
F0.75
I3
I3
I300
tp454
(dp455
g4
F0.89121951219512174
sg5
F0.89555555555555555
sg6
F0.87251122838841044
sg7
F0.87409255518087348
ss(F0.001
I1200
F0.75
I10
I5
I300
tp456
(dp457
g4
F0.91170731707317065
sg5
F0.88444444444444448
sg6
F0.82280071670543453
sg7
F0.85182629158911571
ss(F0.001
I300
F0.5
I7
I15
I300
tp458
(dp459
g4
F0.99512195121951208
sg5
F0.99555555555555553
sg6
F0.99362573099415197
sg7
F0.9945102085325549
ss(F0.001
I1200
F0.5
I5
I10
I300
tp460
(dp461
g4
F0.99999999999999989
sg5
F0.99999999999999989
sg6
F0.99999999999999989
sg7
F0.99999999999999989
ss(F0.001
I1000
F0.29999999999999999
I5
I3
I300
tp462
(dp463
g4
F0.94780487804878033
sg5
F0.9211111111111111
sg6
F0.96469795700988625
sg7
F0.93976279886854375
ss(F0.001
I1200
F0.5
I2
I10
I300
tp464
(dp465
g4
F0.99999999999999989
sg5
F0.99999999999999989
sg6
F0.99999999999999989
sg7
F0.99999999999999989
ss(F0.001
I500
F0.10000000000000001
I10
I15
I300
tp466
(dp467
g4
F0.99999999999999989
sg5
F0.99999999999999989
sg6
F0.99999999999999989
sg7
F0.99999999999999989
ss(F0.001
I1200
F0.10000000000000001
I3
I7
I300
tp468
(dp469
g4
F0.99951219512195111
sg5
F0.99888888888888883
sg6
F0.99999999999999989
sg7
F0.99944134078212288
ss(F0.001
I1000
F0.29999999999999999
I5
I5
I300
tp470
(dp471
g4
F0.99512195121951208
sg5
F0.99666666666666659
sg6
F0.99244948599787308
sg7
F0.99448657056406953
ss(F0.001
I300
F0.10000000000000001
I2
I15
I300
tp472
(dp473
g4
F0.99999999999999989
sg5
F0.99999999999999989
sg6
F0.99999999999999989
sg7
F0.99999999999999989
ss(F0.001
I800
F0
I7
I5
I300
tp474
(dp475
g4
F0.97853658536585353
sg5
F0.9722222222222221
sg6
F0.97946070420013431
sg7
F0.97432206976340507
ss(F0.001
I500
F0.75
I3
I3
I300
tp476
(dp477
g4
F0.82634146341463388
sg5
F0.70000000000000007
sg6
F0.88683620192854284
sg7
F0.77576069378946888
ss(F0.001
I500
F0.75
I3
I15
I300
tp478
(dp479
g4
F0.97609756097560962
sg5
F0.98222222222222222
sg6
F0.96415708559094304
sg7
F0.97306015667413692
ss(F0.001
I1000
F0.5
I2
I3
I300
tp480
(dp481
g4
F0.95853658536585351
sg5
F0.94777777777777761
sg6
F0.96295471496633633
sg7
F0.95229589088766187
ss(F0.001
I300
F0.5
I10
I15
I300
tp482
(dp483
g4
F0.99268292682926818
sg5
F0.99111111111111116
sg6
F0.99230716143759623
sg7
F0.99164424813760843
ss(F0.001
I300
F0.10000000000000001
I10
I15
I300
tp484
(dp485
g4
F0.99121951219512183
sg5
F0.98444444444444434
sg6
F0.99574468085106371
sg7
F0.98977290910200921
ss(F0.001
I1000
F0.10000000000000001
I3
I7
I300
tp486
(dp487
g4
F0.99951219512195111
sg5
F0.99888888888888883
sg6
F0.99999999999999989
sg7
F0.99944134078212288
ss(F0.001
I1200
F0
I7
I7
I300
tp488
(dp489
g4
F0.99804878048780477
sg5
F0.99777777777777765
sg6
F0.9978021978021977
sg7
F0.99777770918855502
ss(F0.001
I300
F0.10000000000000001
I2
I3
I300
tp490
(dp491
g4
F0.92975609756097544
sg5
F0.90111111111111108
sg6
F0.94098065709333423
sg7
F0.91289973162798255
ss(F0.001
I800
F0.5
I3
I7
I300
tp492
(dp493
g4
F0.99609756097560964
sg5
F0.99555555555555553
sg6
F0.99567529244948594
sg7
F0.99556725560848736
ss(F0.001
I800
F0.75
I5
I15
I300
tp494
(dp495
g4
F0.99317073170731696
sg5
F0.9900000000000001
sg6
F0.99445665445665454
sg7
F0.99220977327832494
ss(F0.001
I500
F0.5
I2
I7
I300
tp496
(dp497
g4
F0.98975609756097549
sg5
F0.99222222222222223
sg6
F0.98484603542519111
sg7
F0.98842043606678043
ss(F0.001
I300
F0.29999999999999999
I7
I7
I300
tp498
(dp499
g4
F0.97756097560975597
sg5
F0.98666666666666669
sg6
F0.96418914620189233
sg7
F0.9747156819108459
ss(F0.001
I500
F0.10000000000000001
I10
I7
I300
tp500
(dp501
g4
F0.97853658536585353
sg5
F0.96444444444444433
sg6
F0.98738378565954787
sg7
F0.97457396946271513
ss(F0.001
I500
F0.75
I2
I15
I300
tp502
(dp503
g4
F0.97707317073170719
sg5
F0.98444444444444446
sg6
F0.96446521073131486
sg7
F0.97425995124561493
ss(F0.001
I1200
F0.75
I2
I5
I300
tp504
(dp505
g4
F0.96341463414634132
sg5
F0.97111111111111104
sg6
F0.94789229209153358
sg7
F0.95893749323366828
ss(F0.001
I1200
F0.29999999999999999
I2
I10
I300
tp506
(dp507
g4
F0.99999999999999989
sg5
F0.99999999999999989
sg6
F0.99999999999999989
sg7
F0.99999999999999989
ss(F0.001
I1000
F0.75
I10
I10
I300
tp508
(dp509
g4
F0.98731707317073159
sg5
F0.98777777777777787
sg6
F0.98344294906092666
sg7
F0.98559228508424457
ss(F0.001
I800
F0.10000000000000001
I5
I15
I300
tp510
(dp511
g4
F0.99999999999999989
sg5
F0.99999999999999989
sg6
F0.99999999999999989
sg7
F0.99999999999999989
ss(F0.001
I1000
F0.10000000000000001
I10
I3
I300
tp512
(dp513
g4
F0.79951219512195126
sg5
F0.5755555555555556
sg6
F0.57029102508433815
sg7
F0.57177902897756683
ss(F0.001
I1000
F0.75
I5
I3
I300
tp514
(dp515
g4
F0.88292682926829247
sg5
F0.88444444444444459
sg6
F0.87000830920670735
sg7
F0.86696137645344507
ss(F0.001
I500
F0.10000000000000001
I7
I7
I300
tp516
(dp517
g4
F0.99024390243902427
sg5
F0.99222222222222223
sg6
F0.98628488456064689
sg7
F0.98901097094671497
ss(F0.001
I300
F0.5
I2
I15
I300
tp518
(dp519
g4
F0.99902439024390233
sg5
F0.99888888888888872
sg6
F0.99890109890109879
sg7
F0.99888885459427745
ss(F0.001
I500
F0.75
I3
I7
I300
tp520
(dp521
g4
F0.91121951219512176
sg5
F0.91333333333333344
sg6
F0.88926506021940133
sg7
F0.90042841794603479
ss(F0.001
I800
F0.5
I3
I5
I300
tp522
(dp523
g4
F0.98878048780487793
sg5
F0.99444444444444435
sg6
F0.98084664982030956
sg7
F0.98740457438653306
ss(F0.001
I1000
F0.75
I5
I10
I300
tp524
(dp525
g4
F0.99024390243902427
sg5
F0.98999999999999999
sg6
F0.98787492700536172
sg7
F0.98890703071285357
ss(F0.001
I800
F0.75
I3
I5
I300
tp526
(dp527
g4
F0.9409756097560974
sg5
F0.92666666666666664
sg6
F0.93907828030272544
sg7
F0.93179678768606389
ss(F0.001
I1000
F0
I2
I7
I300
tp528
(dp529
g4
F0.99756097560975598
sg5
F0.99777777777777765
sg6
F0.9967032967032966
sg7
F0.99722522300070982
ss(F0.001
I500
F0.75
I5
I7
I300
tp530
(dp531
g4
F0.92243902439024372
sg5
F0.94222222222222207
sg6
F0.89091389427875134
sg7
F0.91430115823225888
ss(F0.001
I1200
F0
I10
I15
I300
tp532
(dp533
g4
F0.99999999999999989
sg5
F0.99999999999999989
sg6
F0.99999999999999989
sg7
F0.99999999999999989
ss(F0.001
I1200
F0.75
I2
I10
I300
tp534
(dp535
g4
F0.99170731707317061
sg5
F0.9900000000000001
sg6
F0.99122020491585716
sg7
F0.99057673473920904
ss(F0.001
I800
F0.5
I10
I15
I300
tp536
(dp537
g4
F0.99999999999999989
sg5
F0.99999999999999989
sg6
F0.99999999999999989
sg7
F0.99999999999999989
ss(F0.001
I1000
F0.5
I7
I5
I300
tp538
(dp539
g4
F0.97999999999999987
sg5
F0.98444444444444446
sg6
F0.97204952475531858
sg7
F0.97740838372114891
ss(F0.001
I500
F0.29999999999999999
I10
I7
I300
tp540
(dp541
g4
F0.98975609756097549
sg5
F0.98999999999999988
sg6
F0.98720870881394751
sg7
F0.98837394016855773
ss(F0.001
I800
F0
I3
I7
I300
tp542
(dp543
g4
F0.99951219512195111
sg5
F0.99888888888888883
sg6
F0.99999999999999989
sg7
F0.99944134078212277
ss(F0.001
I500
F0.5
I2
I3
I300
tp544
(dp545
g4
F0.91560975609756079
sg5
F0.88666666666666671
sg6
F0.92275610625183269
sg7
F0.90129293390180409
ss(F0.001
I800
F0.5
I5
I7
I300
tp546
(dp547
g4
F0.99951219512195111
sg5
F0.99888888888888883
sg6
F0.99999999999999989
sg7
F0.99944134078212288
ss(F0.001
I1000
F0
I5
I15
I300
tp548
(dp549
g4
F0.99999999999999989
sg5
F0.99999999999999989
sg6
F0.99999999999999989
sg7
F0.99999999999999989
ss(F0.001
I300
F0.75
I5
I5
I300
tp550
(dp551
g4
F0.8185365853658535
sg5
F0.79222222222222227
sg6
F0.81092152995925038
sg7
F0.79208376220169574
ss(F0.001
I800
F0.10000000000000001
I10
I15
I300
tp552
(dp553
g4
F0.99999999999999989
sg5
F0.99999999999999989
sg6
F0.99999999999999989
sg7
F0.99999999999999989
ss(F0.001
I800
F0.75
I5
I7
I300
tp554
(dp555
g4
F0.96975609756097547
sg5
F0.97333333333333338
sg6
F0.95961343022045753
sg7
F0.96596674979921637
ss(F0.001
I1200
F0.5
I3
I10
I300
tp556
(dp557
g4
F0.99999999999999989
sg5
F0.99999999999999989
sg6
F0.99999999999999989
sg7
F0.99999999999999989
ss(F0.001
I300
F0.5
I7
I3
I300
tp558
(dp559
g4
F0.76926829268292674
sg5
F0.60111111111111115
sg6
F0.5931471363367915
sg7
F0.58726304136107998
ss(F0.001
I500
F0.10000000000000001
I2
I5
I300
tp560
(dp561
g4
F0.98634146341463402
sg5
F0.98444444444444446
sg6
F0.98489048229396647
sg7
F0.98442659133913757
ss(F0.001
I500
F0.75
I7
I3
I300
tp562
(dp563
g4
F0.80146341463414628
sg5
F0.73666666666666658
sg6
F0.64184929170705951
sg7
F0.68385939924220907
ss(F0.001
I1200
F0.10000000000000001
I3
I5
I300
tp564
(dp565
g4
F0.99073170731707305
sg5
F0.99555555555555553
sg6
F0.98411097151716864
sg7
F0.98961347737192162
ss(F0.001
I1000
F0
I10
I5
I300
tp566
(dp567
g4
F0.89219512195121942
sg5
F0.79111111111111099
sg6
F0.76662847626693809
sg7
F0.77804886513696714
ss(F0.001
I1200
F0.10000000000000001
I7
I3
I300
tp568
(dp569
g4
F0.84585365853658545
sg5
F0.66666666666666674
sg6
F0.68220947162627976
sg7
F0.6735383444821843
ss(F0.001
I800
F0
I5
I5
I300
tp570
(dp571
g4
F0.98878048780487793
sg5
F0.98555555555555552
sg6
F0.9896628216503992
sg7
F0.98723657878363968
ss(F0.001
I300
F0.29999999999999999
I2
I15
I300
tp572
(dp573
g4
F0.99999999999999989
sg5
F0.99999999999999989
sg6
F0.99999999999999989
sg7
F0.99999999999999989
ss(F0.001
I800
F0
I7
I7
I300
tp574
(dp575
g4
F0.99804878048780477
sg5
F0.99888888888888883
sg6
F0.99672718585762055
sg7
F0.99778995349537647
ss(F0.001
I500
F0.5
I3
I15
I300
tp576
(dp577
g4
F0.99999999999999989
sg5
F0.99999999999999989
sg6
F0.99999999999999989
sg7
F0.99999999999999989
ss(F0.001
I300
F0.75
I5
I3
I300
tp578
(dp579
g4
F0.73512195121951207
sg5
F0.59666666666666668
sg6
F0.63026705656931759
sg7
F0.599893593639373
ss(F0.001
I500
F0.29999999999999999
I3
I15
I300
tp580
(dp581
g4
F0.99999999999999989
sg5
F0.99999999999999989
sg6
F0.99999999999999989
sg7
F0.99999999999999989
ss(F0.001
I300
F0.75
I10
I10
I300
tp582
(dp583
g4
F0.90439024390243883
sg5
F0.94555555555555559
sg6
F0.857905252178216
sg7
F0.8970983698334819
ss(F0.001
I300
F0.5
I7
I10
I300
tp584
(dp585
g4
F0.97951219512195109
sg5
F0.98888888888888871
sg6
F0.96681984142515398
sg7
F0.97724084737426109
ss(F0.001
I800
F0.10000000000000001
I5
I5
I300
tp586
(dp587
g4
F0.98146341463414621
sg5
F0.98222222222222211
sg6
F0.97677207130730048
sg7
F0.97881791616874048
ss(F0.001
I1000
F0.10000000000000001
I3
I5
I300
tp588
(dp589
g4
F0.99073170731707305
sg5
F0.98222222222222211
sg6
F0.9967032967032966
sg7
F0.98927056504112065
ss(F0.001
I300
F0.10000000000000001
I10
I3
I300
tp590
(dp591
g4
F0.66780487804878053
sg5
F0.26111111111111107
sg6
F0.28116604348428198
sg7
F0.27070758114056576
ss(F0.001
I500
F0.5
I10
I3
I300
tp592
(dp593
g4
F0.78195121951219515
sg5
F0.57444444444444442
sg6
F0.53832934960226475
sg7
F0.55370070952871153
ss(F0.001
I1200
F0.10000000000000001
I7
I5
I300
tp594
(dp595
g4
F0.98731707317073159
sg5
F0.99666666666666659
sg6
F0.97573822151127076
sg7
F0.985872698121535
ss(F0.001
I300
F0.75
I3
I10
I300
tp596
(dp597
g4
F0.88682926829268272
sg5
F0.8833333333333333
sg6
F0.86248952533437384
sg7
F0.87218407012832377
ss(F0.001
I800
F0.10000000000000001
I3
I7
I300
tp598
(dp599
g4
F0.99951219512195111
sg5
F0.99999999999999989
sg6
F0.99890109890109879
sg7
F0.99944751381215458
ss(F0.001
I1200
F0.5
I7
I15
I300
tp600
(dp601
g4
F0.99999999999999989
sg5
F0.99999999999999989
sg6
F0.99999999999999989
sg7
F0.99999999999999989
ss(F0.001
I1200
F0
I2
I5
I300
tp602
(dp603
g4
F0.9868292682926828
sg5
F0.9788888888888887
sg6
F0.99146402796288369
sg7
F0.9848130786441105
ss(F0.001
I1000
F0.10000000000000001
I2
I7
I300
tp604
(dp605
g4
F0.99902439024390233
sg5
F0.99777777777777765
sg6
F0.99999999999999989
sg7
F0.99887640449438198
ss(F0.001
I1000
F0.75
I3
I15
I300
tp606
(dp607
g4
F0.9946341463414633
sg5
F0.9933333333333334
sg6
F0.99446886446886451
sg7
F0.99388571663734493
ss(F0.001
I800
F0.5
I3
I3
I300
tp608
(dp609
g4
F0.94926829268292667
sg5
F0.96111111111111125
sg6
F0.93050766162879361
sg7
F0.94395205505823332
ss(F0.001
I500
F0
I2
I15
I300
tp610
(dp611
g4
F0.99999999999999989
sg5
F0.99999999999999989
sg6
F0.99999999999999989
sg7
F0.99999999999999989
ss(F0.001
I1200
F0.10000000000000001
I7
I15
I300
tp612
(dp613
g4
F0.99999999999999989
sg5
F0.99999999999999989
sg6
F0.99999999999999989
sg7
F0.99999999999999989
ss(F0.001
I800
F0.5
I5
I3
I300
tp614
(dp615
g4
F0.86439024390243901
sg5
F0.73555555555555552
sg6
F0.75941679878829815
sg7
F0.74266818277753421
ss(F0.001
I500
F0.75
I5
I5
I300
tp616
(dp617
g4
F0.90341463414634127
sg5
F0.93444444444444441
sg6
F0.86098312759098472
sg7
F0.89499465208309636
ss(F0.001
I1200
F0
I2
I3
I300
tp618
(dp619
g4
F0.94975609756097545
sg5
F0.93555555555555547
sg6
F0.95745518967634569
sg7
F0.94114998553764018
ss(F0.001
I500
F0.75
I3
I5
I300
tp620
(dp621
g4
F0.88487804878048759
sg5
F0.89222222222222225
sg6
F0.85849755658063065
sg7
F0.87188920144318549
ss(F0.001
I1200
F0.5
I2
I5
I300
tp622
(dp623
g4
F0.99268292682926818
sg5
F0.98999999999999988
sg6
F0.99350137940600758
sg7
F0.99159855112170114
ss(F0.001
I500
F0.10000000000000001
I7
I5
I300
tp624
(dp625
g4
F0.97756097560975597
sg5
F0.98777777777777775
sg6
F0.96382904055273222
sg7
F0.97501206920286076
ss(F0.001
I300
F0.5
I2
I7
I300
tp626
(dp627
g4
F0.96243902439024376
sg5
F0.97111111111111104
sg6
F0.94500753267712734
sg7
F0.95778646999790473
ss(F0.001
I1200
F0.29999999999999999
I10
I7
I300
tp628
(dp629
g4
F0.9946341463414633
sg5
F0.99555555555555542
sg6
F0.99247186670868437
sg7
F0.99393378572840307
ss(F0.001
I500
F0.10000000000000001
I10
I10
I300
tp630
(dp631
g4
F0.99756097560975598
sg5
F0.99999999999999989
sg6
F0.9945532728141423
sg7
F0.99724971161435239
ss(F0.001
I1200
F0.10000000000000001
I10
I5
I300
tp632
(dp633
g4
F0.93999999999999995
sg5
F0.8933333333333332
sg6
F0.87309807137383366
sg7
F0.88243630093000014
ss(F0.001
I1200
F0.5
I10
I3
I300
tp634
(dp635
g4
F0.75073170731707317
sg5
F0.46333333333333337
sg6
F0.46900310170321596
sg7
F0.46432560842220399
ss(F0.001
I1200
F0.29999999999999999
I5
I5
I300
tp636
(dp637
g4
F0.98048780487804865
sg5
F0.98111111111111116
sg6
F0.97557017147619962
sg7
F0.97760138494679227
ss(F0.001
I1000
F0.10000000000000001
I5
I15
I300
tp638
(dp639
g4
F0.99999999999999989
sg5
F0.99999999999999989
sg6
F0.99999999999999989
sg7
F0.99999999999999989
ss(F0.001
I300
F0
I5
I10
I300
tp640
(dp641
g4
F0.99902439024390233
sg5
F0.99999999999999989
sg6
F0.99782608695652164
sg7
F0.99890109890109879
ss(F0.001
I800
F0.75
I3
I10
I300
tp642
(dp643
g4
F0.98341463414634134
sg5
F0.98444444444444457
sg6
F0.97812106319219771
sg7
F0.98118233203970351
ss(F0.001
I500
F0
I3
I10
I300
tp644
(dp645
g4
F0.99951219512195111
sg5
F0.99888888888888883
sg6
F0.99999999999999989
sg7
F0.99944134078212288
ss(F0.001
I800
F0.75
I10
I5
I300
tp646
(dp647
g4
F0.89170731707317064
sg5
F0.87
sg6
F0.79725232395534562
sg7
F0.83043706936909001
ss(F0.001
I300
F0.10000000000000001
I5
I3
I300
tp648
(dp649
g4
F0.87024390243902439
sg5
F0.7533333333333333
sg6
F0.75297821604153692
sg7
F0.75204900467041613
ss(F0.001
I1000
F0.10000000000000001
I5
I5
I300
tp650
(dp651
g4
F0.99024390243902427
sg5
F0.99222222222222223
sg6
F0.9869111086932868
sg7
F0.98920003612503482
ss(F0.001
I500
F0.10000000000000001
I3
I15
I300
tp652
(dp653
g4
F0.99999999999999989
sg5
F0.99999999999999989
sg6
F0.99999999999999989
sg7
F0.99999999999999989
ss(F0.001
I800
F0.75
I2
I10
I300
tp654
(dp655
g4
F0.9765853658536584
sg5
F0.97777777777777786
sg6
F0.96991335263870171
sg7
F0.97354420814210374
ss(F0.001
I1000
F0
I3
I3
I300
tp656
(dp657
g4
F0.91560975609756079
sg5
F0.89444444444444426
sg6
F0.92622495529360238
sg7
F0.89937073285856517
ss(F0.001
I1200
F0.10000000000000001
I3
I15
I300
tp658
(dp659
g4
F0.99999999999999989
sg5
F0.99999999999999989
sg6
F0.99999999999999989
sg7
F0.99999999999999989
ss(F0.001
I800
F0.5
I3
I15
I300
tp660
(dp661
g4
F0.99999999999999989
sg5
F0.99999999999999989
sg6
F0.99999999999999989
sg7
F0.99999999999999989
ss(F0.001
I500
F0.5
I7
I5
I300
tp662
(dp663
g4
F0.92292682926829261
sg5
F0.88222222222222224
sg6
F0.84648221478427721
sg7
F0.86335236244113056
ss(F0.001
I1200
F0.29999999999999999
I10
I5
I300
tp664
(dp665
g4
F0.93317073170731701
sg5
F0.87444444444444425
sg6
F0.87506041890440378
sg7
F0.87370623945246695
ss(F0.001
I1000
F0.75
I10
I5
I300
tp666
(dp667
g4
F0.94292682926829252
sg5
F0.96444444444444444
sg6
F0.91405204605301527
sg7
F0.93740241452704753
ss(F0.001
I500
F0.5
I2
I10
I300
tp668
(dp669
g4
F0.99902439024390233
sg5
F0.99999999999999989
sg6
F0.99782608695652164
sg7
F0.99890109890109879
ss(F0.001
I1000
F0.75
I3
I7
I300
tp670
(dp671
g4
F0.97512195121951206
sg5
F0.98333333333333339
sg6
F0.96121524224145383
sg7
F0.97205611103254963
ss(F0.001
I500
F0.75
I3
I10
I300
tp672
(dp673
g4
F0.94878048780487789
sg5
F0.948888888888889
sg6
F0.93549703805708084
sg7
F0.94205606068235892
ss(F0.001
I300
F0.5
I7
I5
I300
tp674
(dp675
g4
F0.92341463414634128
sg5
F0.91222222222222227
sg6
F0.91778177601293454
sg7
F0.91064600225873849
ss(F0.001
I800
F0.75
I2
I3
I300
tp676
(dp677
g4
F0.86048780487804855
sg5
F0.76444444444444448
sg6
F0.90791130859475033
sg7
F0.82442752546264231
ss(F0.001
I300
F0.10000000000000001
I10
I7
I300
tp678
(dp679
g4
F0.98878048780487793
sg5
F0.98666666666666658
sg6
F0.98827938365981838
sg7
F0.98723720789326141
ss(F0.001
I800
F0
I10
I3
I300
tp680
(dp681
g4
F0.8009756097560975
sg5
F0.60888888888888881
sg6
F0.64500058043013375
sg7
F0.61966462551755264
ss(F0.001
I1000
F0.29999999999999999
I5
I7
I300
tp682
(dp683
g4
F0.99999999999999989
sg5
F0.99999999999999989
sg6
F0.99999999999999989
sg7
F0.99999999999999989
ss(F0.001
I800
F0.29999999999999999
I5
I10
I300
tp684
(dp685
g4
F0.99951219512195111
sg5
F0.99888888888888883
sg6
F0.99999999999999989
sg7
F0.99944134078212288
ss(F0.001
I300
F0.5
I2
I3
I300
tp686
(dp687
g4
F0.81560975609756081
sg5
F0.67666666666666675
sg6
F0.79932725698961027
sg7
F0.7234758525204843
ss(F0.001
I1200
F0.5
I2
I7
I300
tp688
(dp689
g4
F0.99999999999999989
sg5
F0.99999999999999989
sg6
F0.99999999999999989
sg7
F0.99999999999999989
ss(F0.001
I800
F0.29999999999999999
I5
I5
I300
tp690
(dp691
g4
F0.99073170731707305
sg5
F0.99999999999999989
sg6
F0.97999787775891334
sg7
F0.98972944388068651
ss(F0.001
I1000
F0.75
I2
I7
I300
tp692
(dp693
g4
F0.9717073170731706
sg5
F0.96777777777777785
sg6
F0.96802748808693739
sg7
F0.9677401128295201
ss(F0.001
I300
F0.10000000000000001
I10
I5
I300
tp694
(dp695
g4
F0.96097560975609742
sg5
F0.93666666666666654
sg6
F0.97429606228880816
sg7
F0.95415883982872196
ss(F0.001
I1000
F0.5
I2
I15
I300
tp696
(dp697
g4
F0.99999999999999989
sg5
F0.99999999999999989
sg6
F0.99999999999999989
sg7
F0.99999999999999989
ss(F0.001
I500
F0.75
I7
I7
I300
tp698
(dp699
g4
F0.92731707317073153
sg5
F0.94777777777777783
sg6
F0.89477514536463998
sg7
F0.91991561667313759
ss(F0.001
I1200
F0.5
I10
I7
I300
tp700
(dp701
g4
F0.99170731707317061
sg5
F0.99888888888888883
sg6
F0.9829093350026773
sg7
F0.99072777120154776
ss(F0.001
I300
F0.29999999999999999
I7
I15
I300
tp702
(dp703
g4
F0.99853658536585355
sg5
F0.99777777777777765
sg6
F0.99890109890109879
sg7
F0.99833019537640044
ss(F0.001
I500
F0
I2
I7
I300
tp704
(dp705
g4
F0.99560975609756086
sg5
F0.99444444444444435
sg6
F0.99555500679096176
sg7
F0.99498441309916963
ss(F0.001
I800
F0
I3
I5
I300
tp706
(dp707
g4
F0.99219512195121939
sg5
F0.99111111111111105
sg6
F0.99146402796288369
sg7
F0.99113226879645144
ss(F0.001
I800
F0.10000000000000001
I5
I7
I300
tp708
(dp709
g4
F0.99804878048780477
sg5
F0.99999999999999989
sg6
F0.99562828475871945
sg7
F0.99779612652540817
ss(F0.001
I800
F0
I5
I7
I300
tp710
(dp711
g4
F0.99512195121951208
sg5
F0.99333333333333318
sg6
F0.99567529244948594
sg7
F0.99441833904138488
ss(F0.001
I1000
F0.29999999999999999
I5
I10
I300
tp712
(dp713
g4
F0.99999999999999989
sg5
F0.99999999999999989
sg6
F0.99999999999999989
sg7
F0.99999999999999989
ss(F0.001
I300
F0.10000000000000001
I2
I7
I300
tp714
(dp715
g4
F0.98634146341463402
sg5
F0.98333333333333328
sg6
F0.98606161905073053
sg7
F0.98439592525441977
ss(F0.001
I500
F0.10000000000000001
I7
I15
I300
tp716
(dp717
g4
F0.99951219512195111
sg5
F0.99999999999999989
sg6
F0.99890109890109879
sg7
F0.99944751381215458
ss(F0.001
I300
F0
I3
I10
I300
tp718
(dp719
g4
F0.99999999999999989
sg5
F0.99999999999999989
sg6
F0.99999999999999989
sg7
F0.99999999999999989
ss(F0.001
I1200
F0.75
I5
I15
I300
tp720
(dp721
g4
F0.99804878048780477
sg5
F0.99555555555555553
sg6
F0.99999999999999989
sg7
F0.99776536312849151
ss(F0.001
I800
F0
I3
I3
I300
tp722
(dp723
g4
F0.94243902439024374
sg5
F0.91555555555555546
sg6
F0.95888522648463725
sg7
F0.93097724904757861
ss(F0.001
I500
F0.29999999999999999
I10
I10
I300
tp724
(dp725
g4
F0.99121951219512183
sg5
F0.99111111111111105
sg6
F0.98917667185549374
sg7
F0.98986627521012038
ss(F0.001
I800
F0.75
I7
I3
I300
tp726
(dp727
g4
F0.87756097560975588
sg5
F0.82777777777777772
sg6
F0.90049295845741939
sg7
F0.85338934155404977
ss(F0.001
I300
F0.10000000000000001
I2
I5
I300
tp728
(dp729
g4
F0.98048780487804865
sg5
F0.97000000000000008
sg6
F0.98597060811939774
sg7
F0.9774381900329856
ss(F0.001
I1200
F0.5
I3
I5
I300
tp730
(dp731
g4
F0.99268292682926818
sg5
F0.99777777777777765
sg6
F0.98592697624955694
sg7
F0.99176087705601113
ss(F0.001
I1000
F0.5
I10
I3
I300
tp732
(dp733
g4
F0.82341463414634142
sg5
F0.66666666666666663
sg6
F0.63633599621728199
sg7
F0.65031100929176888
ss(F0.001
I1200
F0
I10
I7
I300
tp734
(dp735
g4
F0.9970731707317072
sg5
F0.99999999999999989
sg6
F0.99357076780758546
sg7
F0.99672718585762055
ss(F0.001
I1000
F0.29999999999999999
I10
I3
I300
tp736
(dp737
g4
F0.93463414634146325
sg5
F0.93777777777777771
sg6
F0.92402211717346039
sg7
F0.9259640882621667
ss(F0.001
I1200
F0.29999999999999999
I5
I7
I300
tp738
(dp739
g4
F0.99999999999999989
sg5
F0.99999999999999989
sg6
F0.99999999999999989
sg7
F0.99999999999999989
ss(F0.001
I500
F0.10000000000000001
I7
I3
I300
tp740
(dp741
g4
F0.87414634146341452
sg5
F0.75444444444444447
sg6
F0.76325293951572726
sg7
F0.75438145987756355
ss(F0.001
I500
F0.5
I3
I3
I300
tp742
(dp743
g4
F0.8975609756097559
sg5
F0.81222222222222218
sg6
F0.95324466324890511
sg7
F0.86783437717027256
ss(F0.001
I500
F0.29999999999999999
I3
I10
I300
tp744
(dp745
g4
F0.99999999999999989
sg5
F0.99999999999999989
sg6
F0.99999999999999989
sg7
F0.99999999999999989
ss(F0.001
I500
F0.5
I5
I3
I300
tp746
(dp747
g4
F0.85804878048780486
sg5
F0.77777777777777768
sg6
F0.71393449654151919
sg7
F0.74271897951446597
ss(F0.001
I800
F0.5
I7
I10
I300
tp748
(dp749
g4
F0.99999999999999989
sg5
F0.99999999999999989
sg6
F0.99999999999999989
sg7
F0.99999999999999989
ss(F0.001
I500
F0
I7
I3
I300
tp750
(dp751
g4
F0.85365853658536583
sg5
F0.74888888888888883
sg6
F0.73103645867436884
sg7
F0.73384957939966122
ss(F0.001
I800
F0.10000000000000001
I2
I5
I300
tp752
(dp753
g4
F0.99414634146341452
sg5
F0.98999999999999999
sg6
F0.99677419354838703
sg7
F0.99330123103647749
ss(F0.001
I800
F0
I2
I5
I300
tp754
(dp755
g4
F0.98780487804878037
sg5
F0.99111111111111094
sg6
F0.98193705847369039
sg7
F0.98624823246117177
ss(F0.001
I1000
F0
I5
I7
I300
tp756
(dp757
g4
F0.99853658536585355
sg5
F0.99777777777777765
sg6
F0.99890109890109879
sg7
F0.99832391830653666
ss(F0.001
I1000
F0.10000000000000001
I5
I3
I300
tp758
(dp759
g4
F0.96682926829268279
sg5
F0.97222222222222232
sg6
F0.95627836777993647
sg7
F0.96287649032805234
ss(F0.001
I300
F0.10000000000000001
I2
I10
I300
tp760
(dp761
g4
F0.99804878048780477
sg5
F0.99999999999999989
sg6
F0.99562828475871945
sg7
F0.99779612652540817
ss(F0.001
I1000
F0.75
I3
I10
I300
tp762
(dp763
g4
F0.99268292682926818
sg5
F0.9900000000000001
sg6
F0.99334554334554337
sg7
F0.99165732138509077
ss(F0.001
I300
F0
I5
I3
I300
tp764
(dp765
g4
F0.85365853658536561
sg5
F0.84333333333333338
sg6
F0.75124228101584622
sg7
F0.79150670962676817
ss(F0.001
I1200
F0.10000000000000001
I7
I10
I300
tp766
(dp767
g4
F0.99951219512195111
sg5
F0.99999999999999989
sg6
F0.99890109890109879
sg7
F0.99944751381215458
ss(F0.001
I1200
F0.5
I7
I10
I300
tp768
(dp769
g4
F0.99999999999999989
sg5
F0.99999999999999989
sg6
F0.99999999999999989
sg7
F0.99999999999999989
ss(F0.001
I800
F0.10000000000000001
I10
I5
I300
tp770
(dp771
g4
F0.9868292682926828
sg5
F0.98333333333333328
sg6
F0.98716320956669368
sg7
F0.98480900607019006
ss(F0.001
I1200
F0
I3
I15
I300
tp772
(dp773
g4
F0.99999999999999989
sg5
F0.99999999999999989
sg6
F0.99999999999999989
sg7
F0.99999999999999989
ss(F0.001
I1000
F0.5
I3
I5
I300
tp774
(dp775
g4
F0.9843902439024389
sg5
F0.98888888888888893
sg6
F0.97735840261213836
sg7
F0.98263696712931559
ss(F0.001
I500
F0.10000000000000001
I5
I3
I300
tp776
(dp777
g4
F0.90146341463414625
sg5
F0.81555555555555559
sg6
F0.86471401462174824
sg7
F0.83430056172189693
ss(F0.001
I800
F0.75
I2
I5
I300
tp778
(dp779
g4
F0.92536585365853641
sg5
F0.91333333333333333
sg6
F0.91888141025641024
sg7
F0.91430617548146209
ss(F0.001
I1000
F0.10000000000000001
I10
I10
I300
tp780
(dp781
g4
F0.99902439024390233
sg5
F0.99999999999999989
sg6
F0.9978021978021977
sg7
F0.99889502762430926
ss(F0.001
I1000
F0.75
I3
I5
I300
tp782
(dp783
g4
F0.95268292682926814
sg5
F0.96111111111111114
sg6
F0.93336415894989744
sg7
F0.94690907104211175
ss(F0.001
I300
F0.29999999999999999
I2
I7
I300
tp784
(dp785
g4
F0.98878048780487793
sg5
F0.99333333333333318
sg6
F0.98164400966547138
sg7
F0.98734566055087902
ss(F0.001
I500
F0.29999999999999999
I3
I7
I300
tp786
(dp787
g4
F0.99609756097560964
sg5
F0.99999999999999989
sg6
F0.99128045867176295
sg7
F0.99559832432760598
ss(F0.001
I800
F0.29999999999999999
I10
I3
I300
tp788
(dp789
g4
F0.76097560975609768
sg5
F0.49555555555555553
sg6
F0.46296608026586716
sg7
F0.478592079155721
ss(F0.001
I1200
F0.29999999999999999
I7
I3
I300
tp790
(dp791
g4
F0.83560975609756094
sg5
F0.66111111111111109
sg6
F0.6662996484540642
sg7
F0.66126694949889353
ss(F0.001
I1000
F0.29999999999999999
I10
I15
I300
tp792
(dp793
g4
F0.99999999999999989
sg5
F0.99999999999999989
sg6
F0.99999999999999989
sg7
F0.99999999999999989
ss(F0.001
I1000
F0
I10
I15
I300
tp794
(dp795
g4
F0.99999999999999989
sg5
F0.99999999999999989
sg6
F0.99999999999999989
sg7
F0.99999999999999989
ss(F0.001
I800
F0.10000000000000001
I3
I15
I300
tp796
(dp797
g4
F0.99999999999999989
sg5
F0.99999999999999989
sg6
F0.99999999999999989
sg7
F0.99999999999999989
ss(F0.001
I300
F0.75
I10
I5
I300
tp798
(dp799
g4
F0.85219512195121927
sg5
F0.86555555555555541
sg6
F0.82293871519781847
sg7
F0.83696864455191233
ss(F0.001
I500
F0.5
I7
I7
I300
tp800
(dp801
g4
F0.98731707317073159
sg5
F0.98333333333333328
sg6
F0.98823822151127083
sg7
F0.98535542098124562
ss(F0.001
I1000
F0.10000000000000001
I5
I10
I300
tp802
(dp803
g4
F0.99853658536585355
sg5
F0.99999999999999989
sg6
F0.99672718585762055
sg7
F0.99834861271325348
ss(F0.001
I500
F0.5
I5
I7
I300
tp804
(dp805
g4
F0.98731707317073159
sg5
F0.98111111111111104
sg6
F0.99021354531992822
sg7
F0.98544589262764304
ss(F0.001
I500
F0
I10
I3
I300
tp806
(dp807
g4
F0.82292682926829253
sg5
F0.65333333333333321
sg6
F0.64978464306234673
sg7
F0.64766773726265392
ss(F0.001
I500
F0.5
I7
I15
I300
tp808
(dp809
g4
F0.99999999999999989
sg5
F0.99999999999999989
sg6
F0.99999999999999989
sg7
F0.99999999999999989
ss(F0.001
I1200
F0.5
I10
I15
I300
tp810
(dp811
g4
F0.99999999999999989
sg5
F0.99999999999999989
sg6
F0.99999999999999989
sg7
F0.99999999999999989
ss(F0.001
I1200
F0.10000000000000001
I7
I7
I300
tp812
(dp813
g4
F0.99609756097560964
sg5
F0.99444444444444435
sg6
F0.99672718585762055
sg7
F0.99549146985611059
ss(F0.001
I1200
F0.75
I3
I5
I300
tp814
(dp815
g4
F0.96341463414634132
sg5
F0.97222222222222221
sg6
F0.94658170423266108
sg7
F0.95894138084453229
ss(F0.001
I1200
F0.10000000000000001
I2
I7
I300
tp816
(dp817
g4
F0.99951219512195111
sg5
F0.99888888888888883
sg6
F0.99999999999999989
sg7
F0.99944134078212277
ss(F0.001
I300
F0.75
I5
I7
I300
tp818
(dp819
g4
F0.86341463414634123
sg5
F0.86888888888888893
sg6
F0.83320237258275376
sg7
F0.84781967824611193
ss(F0.001
I500
F0.5
I5
I10
I300
tp820
(dp821
g4
F0.99658536585365842
sg5
F0.99888888888888872
sg6
F0.9934543717152412
sg7
F0.99613856620862995
ss(F0.001
I800
F0.10000000000000001
I3
I3
I300
tp822
(dp823
g4
F0.96341463414634132
sg5
F0.98444444444444446
sg6
F0.93969583485568142
sg7
F0.96057536116626763
ss(F0.001
I800
F0.5
I2
I5
I300
tp824
(dp825
g4
F0.98195121951219499
sg5
F0.97777777777777786
sg6
F0.9817927076429882
sg7
F0.97932043849613304
ss(F0.001
I800
F0.29999999999999999
I5
I3
I300
tp826
(dp827
g4
F0.87170731707317073
sg5
F0.74222222222222212
sg6
F0.76809070548712199
sg7
F0.7521158151686278
ss(F0.001
I1200
F0.10000000000000001
I2
I5
I300
tp828
(dp829
g4
F0.99268292682926818
sg5
F0.99333333333333329
sg6
F0.99032107220164867
sg7
F0.99172353794140977
ss(F0.001
I1200
F0.29999999999999999
I3
I5
I300
tp830
(dp831
g4
F0.99512195121951208
sg5
F0.99222222222222212
sg6
F0.99672718585762055
sg7
F0.99441278351764406
ss(F0.001
I1000
F0.5
I5
I7
I300
tp832
(dp833
g4
F0.99902439024390233
sg5
F0.99777777777777765
sg6
F0.99999999999999989
sg7
F0.99887640449438186
ss(F0.001
I1000
F0.5
I7
I15
I300
tp834
(dp835
g4
F0.99999999999999989
sg5
F0.99999999999999989
sg6
F0.99999999999999989
sg7
F0.99999999999999989
ss(F0.001
I500
F0
I5
I5
I300
tp836
(dp837
g4
F0.9765853658536584
sg5
F0.97111111111111115
sg6
F0.97694951022255949
sg7
F0.97294239926987924
ss(F0.001
I1200
F0.29999999999999999
I5
I10
I300
tp838
(dp839
g4
F0.99999999999999989
sg5
F0.99999999999999989
sg6
F0.99999999999999989
sg7
F0.99999999999999989
ss(F0.001
I1000
F0
I10
I10
I300
tp840
(dp841
g4
F0.99999999999999989
sg5
F0.99999999999999989
sg6
F0.99999999999999989
sg7
F0.99999999999999989
ss(F0.001
I1000
F0
I5
I10
I300
tp842
(dp843
g4
F0.99951219512195111
sg5
F0.99999999999999989
sg6
F0.99890109890109879
sg7
F0.99944751381215458
ss(F0.001
I300
F0.75
I5
I10
I300
tp844
(dp845
g4
F0.8975609756097559
sg5
F0.89999999999999991
sg6
F0.87426207122173072
sg7
F0.88536958189747472
ss(F0.001
I1200
F0.75
I3
I10
I300
tp846
(dp847
g4
F0.99170731707317061
sg5
F0.9900000000000001
sg6
F0.99111111111111116
sg7
F0.99055245189323404
ss(F0.001
I300
F0
I10
I3
I300
tp848
(dp849
g4
F0.7858536585365854
sg5
F0.59999999999999998
sg6
F0.62950107846445214
sg7
F0.60341277247432434
ss(F0.001
I1200
F0.29999999999999999
I7
I10
I300
tp850
(dp851
g4
F0.99999999999999989
sg5
F0.99999999999999989
sg6
F0.99999999999999989
sg7
F0.99999999999999989
ss(F0.001
I1200
F0.5
I5
I5
I300
tp852
(dp853
g4
F0.98975609756097549
sg5
F0.98999999999999988
sg6
F0.987255716504714
sg7
F0.9883535094059599
ss(F0.001
I800
F0.75
I5
I3
I300
tp854
(dp855
g4
F0.85902439024390231
sg5
F0.83222222222222231
sg6
F0.76809785688504217
sg7
F0.79481484314902973
ss(F0.001
I800
F0.29999999999999999
I5
I15
I300
tp856
(dp857
g4
F0.99999999999999989
sg5
F0.99999999999999989
sg6
F0.99999999999999989
sg7
F0.99999999999999989
ss(F0.001
I800
F0.10000000000000001
I10
I10
I300
tp858
(dp859
g4
F0.99999999999999989
sg5
F0.99999999999999989
sg6
F0.99999999999999989
sg7
F0.99999999999999989
ss(F0.001
I500
F0.10000000000000001
I3
I7
I300
tp860
(dp861
g4
F0.99853658536585355
sg5
F0.99666666666666659
sg6
F0.99999999999999989
sg7
F0.99831774527650485
ss(F0.001
I500
F0.75
I2
I5
I300
tp862
(dp863
g4
F0.87268292682926807
sg5
F0.83888888888888891
sg6
F0.87449772695293626
sg7
F0.85094945882783724
ss(F0.001
I500
F0.75
I7
I15
I300
tp864
(dp865
g4
F0.98146341463414621
sg5
F0.98111111111111116
sg6
F0.97708446610269895
sg7
F0.97897203667458932
ss(F0.001
I800
F0.5
I5
I10
I300
tp866
(dp867
g4
F0.99902439024390233
sg5
F0.99777777777777765
sg6
F0.99999999999999989
sg7
F0.99887640449438198
ss(F0.001
I800
F0.5
I2
I3
I300
tp868
(dp869
g4
F0.93902439024390227
sg5
F0.9044444444444445
sg6
F0.95703785459313129
sg7
F0.92618616661234276
ss(F0.001
I1000
F0
I5
I5
I300
tp870
(dp871
g4
F0.98975609756097549
sg5
F0.98888888888888882
sg6
F0.98827151074631459
sg7
F0.98836173015634743
ss(F0.001
I1200
F0.5
I3
I3
I300
tp872
(dp873
g4
F0.94829268292682911
sg5
F0.95111111111111113
sg6
F0.93584471094232879
sg7
F0.94201217883539057
ss(F0.001
I800
F0.29999999999999999
I10
I5
I300
tp874
(dp875
g4
F0.9717073170731706
sg5
F0.98222222222222222
sg6
F0.95717051092602334
sg7
F0.96849050270910075
ss(F0.001
I300
F0.75
I3
I5
I300
tp876
(dp877
g4
F0.82243902439024374
sg5
F0.80666666666666653
sg6
F0.80734547845414784
sg7
F0.79801989042687171
ss(F0.001
I1000
F0.29999999999999999
I5
I15
I300
tp878
(dp879
g4
F0.99999999999999989
sg5
F0.99999999999999989
sg6
F0.99999999999999989
sg7
F0.99999999999999989
ss(F0.001
I1200
F0.29999999999999999
I2
I7
I300
tp880
(dp881
g4
F0.99999999999999989
sg5
F0.99999999999999989
sg6
F0.99999999999999989
sg7
F0.99999999999999989
ss(F0.001
I300
F0
I3
I5
I300
tp882
(dp883
g4
F0.98975609756097549
sg5
F0.98444444444444446
sg6
F0.99230769230769222
sg7
F0.98822199172589753
ss(F0.001
I1000
F0.5
I5
I3
I300
tp884
(dp885
g4
F0.82487804878048776
sg5
F0.65111111111111108
sg6
F0.65295471376303482
sg7
F0.64924138220071226
ss(F0.001
I1000
F0.5
I7
I3
I300
tp886
(dp887
g4
F0.84292682926829254
sg5
F0.6711111111111111
sg6
F0.6741528343250861
sg7
F0.67119477293734253
ss(F0.001
I300
F0.29999999999999999
I5
I10
I300
tp888
(dp889
g4
F0.99853658536585355
sg5
F0.99999999999999989
sg6
F0.9967032967032966
sg7
F0.99834254143646395
ss(F0.001
I800
F0.75
I3
I15
I300
tp890
(dp891
g4
F0.99121951219512183
sg5
F0.99000000000000021
sg6
F0.99003663003663012
sg7
F0.9900060701461979
ss(F0.001
I1000
F0.10000000000000001
I2
I15
I300
tp892
(dp893
g4
F0.99999999999999989
sg5
F0.99999999999999989
sg6
F0.99999999999999989
sg7
F0.99999999999999989
ss(F0.001
I1000
F0.29999999999999999
I7
I7
I300
tp894
(dp895
g4
F0.9946341463414633
sg5
F0.98888888888888871
sg6
F0.99890109890109879
sg7
F0.99362569669954059
ss(F0.001
I800
F0.10000000000000001
I7
I10
I300
tp896
(dp897
g4
F0.99999999999999989
sg5
F0.99999999999999989
sg6
F0.99999999999999989
sg7
F0.99999999999999989
ss(F0.001
I1000
F0.5
I2
I10
I300
tp898
(dp899
g4
F0.99999999999999989
sg5
F0.99999999999999989
sg6
F0.99999999999999989
sg7
F0.99999999999999989
ss(F0.001
I1200
F0
I10
I10
I300
tp900
(dp901
g4
F0.99999999999999989
sg5
F0.99999999999999989
sg6
F0.99999999999999989
sg7
F0.99999999999999989
ss(F0.001
I500
F0.29999999999999999
I5
I3
I300
tp902
(dp903
g4
F0.89414634146341454
sg5
F0.80333333333333345
sg6
F0.85814145639494077
sg7
F0.82392028400923711
ss(F0.001
I500
F0.75
I7
I10
I300
tp904
(dp905
g4
F0.96341463414634132
sg5
F0.98111111111111127
sg6
F0.93885088563482944
sg7
F0.95936382438681655
ss(F0.001
I800
F0.5
I5
I15
I300
tp906
(dp907
g4
F0.99999999999999989
sg5
F0.99999999999999989
sg6
F0.99999999999999989
sg7
F0.99999999999999989
ss(F0.001
I1000
F0.29999999999999999
I3
I10
I300
tp908
(dp909
g4
F0.99999999999999989
sg5
F0.99999999999999989
sg6
F0.99999999999999989
sg7
F0.99999999999999989
ss(F0.001
I300
F0
I7
I3
I300
tp910
(dp911
g4
F0.69463414634146337
sg5
F0.4177777777777778
sg6
F0.40987795803102417
sg7
F0.40663466641657903
ss(F0.001
I1000
F0
I2
I3
I300
tp912
(dp913
g4
F0.96097560975609742
sg5
F0.92333333333333323
sg6
F0.9887351778656126
sg7
F0.95281992746592026
ss(F0.001
I500
F0.5
I5
I15
I300
tp914
(dp915
g4
F0.99999999999999989
sg5
F0.99999999999999989
sg6
F0.99999999999999989
sg7
F0.99999999999999989
ss(F0.001
I500
F0.75
I2
I7
I300
tp916
(dp917
g4
F0.92097560975609738
sg5
F0.92555555555555558
sg6
F0.89849215801555271
sg7
F0.91135045512964352
ss(F0.001
I500
F0.75
I2
I3
I300
tp918
(dp919
g4
F0.81317073170731691
sg5
F0.76444444444444448
sg6
F0.82314247437250021
sg7
F0.77792981168001729
ss(F0.001
I300
F0.5
I5
I5
I300
tp920
(dp921
g4
F0.93999999999999984
sg5
F0.91444444444444439
sg6
F0.95010365533510921
sg7
F0.92954276965246441
ss(F0.001
I1200
F0
I3
I10
I300
tp922
(dp923
g4
F0.99951219512195111
sg5
F0.99999999999999989
sg6
F0.99890109890109879
sg7
F0.99944751381215458
ss(F0.001
I1200
F0.5
I3
I15
I300
tp924
(dp925
g4
F0.99999999999999989
sg5
F0.99999999999999989
sg6
F0.99999999999999989
sg7
F0.99999999999999989
ss(F0.001
I800
F0.29999999999999999
I10
I10
I300
tp926
(dp927
g4
F0.99853658536585355
sg5
F0.99999999999999989
sg6
F0.99677419354838692
sg7
F0.99836065573770483
ss(F0.001
I1200
F0.29999999999999999
I3
I10
I300
tp928
(dp929
g4
F0.99999999999999989
sg5
F0.99999999999999989
sg6
F0.99999999999999989
sg7
F0.99999999999999989
ss(F0.001
I1000
F0.10000000000000001
I10
I7
I300
tp930
(dp931
g4
F0.99268292682926818
sg5
F0.99888888888888872
sg6
F0.98534643421642398
sg7
F0.99189642147249768
ss(F0.001
I800
F0
I5
I3
I300
tp932
(dp933
g4
F0.90829268292682919
sg5
F0.82666666666666666
sg6
F0.868460636041823
sg7
F0.84087033719734883
ss(F0.001
I300
F0
I2
I7
I300
tp934
(dp935
g4
F0.99073170731707305
sg5
F0.99444444444444435
sg6
F0.98503747762981564
sg7
F0.98958472789868979
ss(F0.001
I500
F0.29999999999999999
I7
I3
I300
tp936
(dp937
g4
F0.85658536585365841
sg5
F0.73666666666666669
sg6
F0.74377475349685196
sg7
F0.73466152522444206
ss(F0.001
I1000
F0
I2
I15
I300
tp938
(dp939
g4
F0.99999999999999989
sg5
F0.99999999999999989
sg6
F0.99999999999999989
sg7
F0.99999999999999989
ss(F0.001
I1000
F0.5
I7
I7
I300
tp940
(dp941
g4
F0.99853658536585355
sg5
F0.99777777777777765
sg6
F0.99890109890109879
sg7
F0.99833019537640044
ss(F0.001
I300
F0.29999999999999999
I2
I3
I300
tp942
(dp943
g4
F0.92731707317073153
sg5
F0.8866666666666666
sg6
F0.9486319692938483
sg7
F0.91024274277286044
ss(F0.001
I300
F0
I5
I5
I300
tp944
(dp945
g4
F0.97317073170731694
sg5
F0.95222222222222219
sg6
F0.98690874343048252
sg7
F0.96857035980939443
ss(F0.001
I1000
F0.10000000000000001
I10
I5
I300
tp946
(dp947
g4
F0.99512195121951208
sg5
F0.99333333333333318
sg6
F0.99567529244948594
sg7
F0.9944118467715144
ss(F0.001
I500
F0
I5
I3
I300
tp948
(dp949
g4
F0.89609756097560966
sg5
F0.81444444444444442
sg6
F0.8559597346145047
sg7
F0.82699353587404001
ss(F0.001
I1200
F0
I2
I10
I300
tp950
(dp951
g4
F0.99951219512195111
sg5
F0.99888888888888883
sg6
F0.99999999999999989
sg7
F0.99944134078212288
ss(F0.001
I800
F0.10000000000000001
I2
I15
I300
tp952
(dp953
g4
F0.99999999999999989
sg5
F0.99999999999999989
sg6
F0.99999999999999989
sg7
F0.99999999999999989
ss(F0.001
I500
F0
I10
I15
I300
tp954
(dp955
g4
F0.99999999999999989
sg5
F0.99999999999999989
sg6
F0.99999999999999989
sg7
F0.99999999999999989
ss(F0.001
I800
F0.75
I2
I7
I300
tp956
(dp957
g4
F0.95268292682926814
sg5
F0.95000000000000007
sg6
F0.94356867035829761
sg7
F0.94616561740421701
ss(F0.001
I500
F0.29999999999999999
I7
I15
I300
tp958
(dp959
g4
F0.99999999999999989
sg5
F0.99999999999999989
sg6
F0.99999999999999989
sg7
F0.99999999999999989
ss(F0.001
I1200
F0.75
I7
I3
I300
tp960
(dp961
g4
F0.8848780487804877
sg5
F0.80555555555555558
sg6
F0.8338750322420948
sg7
F0.81639280742440046
ss(F0.001
I500
F0
I2
I5
I300
tp962
(dp963
g4
F0.98292682926829256
sg5
F0.97555555555555551
sg6
F0.98573785322760887
sg7
F0.98031311913528119
ss(F0.001
I1200
F0
I3
I7
I300
tp964
(dp965
g4
F0.99853658536585355
sg5
F0.99999999999999989
sg6
F0.99677419354838703
sg7
F0.99836065573770483
ss(F0.001
I300
F0.29999999999999999
I10
I7
I300
tp966
(dp967
g4
F0.97707317073170719
sg5
F0.96777777777777785
sg6
F0.98043859764289865
sg7
F0.97342299261044929
ss(F0.001
I500
F0.5
I5
I5
I300
tp968
(dp969
g4
F0.96439024390243888
sg5
F0.96555555555555572
sg6
F0.95624595974170734
sg7
F0.95994574696118939
ss(F0.001
I1000
F0
I3
I5
I300
tp970
(dp971
g4
F0.98585365853658524
sg5
F0.97777777777777763
sg6
F0.99027557295439472
sg7
F0.98343051786345437
ss(F0.001
I500
F0.29999999999999999
I10
I3
I300
tp972
(dp973
g4
F0.86048780487804866
sg5
F0.72444444444444434
sg6
F0.75943937026588182
sg7
F0.73562916060478623
ss(F0.001
I300
F0.10000000000000001
I10
I10
I300
tp974
(dp975
g4
F0.98634146341463402
sg5
F0.98888888888888882
sg6
F0.98080115057305561
sg7
F0.98443020365033629
ss(F0.001
I800
F0.29999999999999999
I2
I15
I300
tp976
(dp977
g4
F0.99999999999999989
sg5
F0.99999999999999989
sg6
F0.99999999999999989
sg7
F0.99999999999999989
ss(F0.001
I1000
F0
I5
I3
I300
tp978
(dp979
g4
F0.82439024390243909
sg5
F0.64555555555555555
sg6
F0.66506147540983607
sg7
F0.65132741987567933
ss(F0.001
I300
F0.5
I5
I15
I300
tp980
(dp981
g4
F0.99853658536585355
sg5
F0.99999999999999989
sg6
F0.9967032967032966
sg7
F0.99834254143646395
ss(F0.001
I800
F0.10000000000000001
I10
I3
I300
tp982
(dp983
g4
F0.76048780487804879
sg5
F0.46777777777777779
sg6
F0.48714253031342947
sg7
F0.47609663278158421
ss(F0.001
I1000
F0
I2
I10
I300
tp984
(dp985
g4
F0.99999999999999989
sg5
F0.99999999999999989
sg6
F0.99999999999999989
sg7
F0.99999999999999989
ss(F0.001
I1000
F0
I7
I5
I300
tp986
(dp987
g4
F0.98878048780487793
sg5
F0.98222222222222211
sg6
F0.99265109890109882
sg7
F0.987064747256718
ss(F0.001
I500
F0
I3
I5
I300
tp988
(dp989
g4
F0.99121951219512183
sg5
F0.98222222222222222
sg6
F0.9978021978021977
sg7
F0.98977770171116786
ss(F0.001
I500
F0.5
I2
I15
I300
tp990
(dp991
g4
F0.99999999999999989
sg5
F0.99999999999999989
sg6
F0.99999999999999989
sg7
F0.99999999999999989
ss(F0.001
I1000
F0.29999999999999999
I2
I3
I300
tp992
(dp993
g4
F0.96341463414634132
sg5
F0.93888888888888877
sg6
F0.97860086364676269
sg7
F0.95680824354758254
ss(F0.001
I500
F0.29999999999999999
I7
I10
I300
tp994
(dp995
g4
F0.9946341463414633
sg5
F0.99777777777777765
sg6
F0.99052419354838694
sg7
F0.99401125378047406
ss(F0.001
I500
F0.10000000000000001
I7
I10
I300
tp996
(dp997
g4
F0.99804878048780477
sg5
F0.99999999999999989
sg6
F0.99574468085106371
sg7
F0.99782608695652164
ss(F0.001
I500
F0.29999999999999999
I3
I5
I300
tp998
(dp999
g4
F0.99024390243902427
sg5
F0.99222222222222212
sg6
F0.98597449768557754
sg7
F0.98894785324303025
ss(F0.001
I500
F0
I10
I5
I300
tp1000
(dp1001
g4
F0.9234146341463414
sg5
F0.85888888888888892
sg6
F0.86831990871523623
sg7
F0.86155390286755174
ss(F0.001
I800
F0.75
I7
I7
I300
tp1002
(dp1003
g4
F0.97024390243902425
sg5
F0.97888888888888881
sg6
F0.95570897588069459
sg7
F0.96671042030736543
ss(F0.001
I800
F0.5
I2
I10
I300
tp1004
(dp1005
g4
F0.99951219512195111
sg5
F0.99999999999999989
sg6
F0.99890109890109879
sg7
F0.99944751381215458
ss(F0.001
I300
F0.75
I5
I15
I300
tp1006
(dp1007
g4
F0.93902439024390227
sg5
F0.93555555555555547
sg6
F0.92696111821955329
sg7
F0.93091457985919457
ss(F0.001
I1000
F0.75
I2
I5
I300
tp1008
(dp1009
g4
F0.94390243902439008
sg5
F0.92555555555555569
sg6
F0.94619203786957562
sg7
F0.93473891280314525
ss(F0.001
I500
F0.29999999999999999
I3
I3
I300
tp1010
(dp1011
g4
F0.94829268292682911
sg5
F0.92666666666666664
sg6
F0.95969768435998415
sg7
F0.93950288282757932
ss(F0.001
I1200
F0.75
I2
I7
I300
tp1012
(dp1013
g4
F0.97268292682926816
sg5
F0.97444444444444445
sg6
F0.96406690039227427
sg7
F0.96906761160431742
ss(F0.001
I1200
F0.29999999999999999
I7
I15
I300
tp1014
(dp1015
g4
F0.99999999999999989
sg5
F0.99999999999999989
sg6
F0.99999999999999989
sg7
F0.99999999999999989
ss(F0.001
I300
F0.10000000000000001
I3
I7
I300
tp1016
(dp1017
g4
F0.9970731707317072
sg5
F0.99666666666666659
sg6
F0.99677419354838703
sg7
F0.99667840101420968
ss(F0.001
I500
F0
I10
I7
I300
tp1018
(dp1019
g4
F0.98634146341463402
sg5
F0.97777777777777763
sg6
F0.99127968805388145
sg7
F0.98323832334457628
ss(F0.001
I300
F0
I10
I5
I300
tp1020
(dp1021
g4
F0.91414634146341456
sg5
F0.8388888888888888
sg6
F0.86833256029684602
sg7
F0.84818755740172525
ss(F0.001
I1200
F0.10000000000000001
I5
I15
I300
tp1022
(dp1023
g4
F0.99999999999999989
sg5
F0.99999999999999989
sg6
F0.99999999999999989
sg7
F0.99999999999999989
ss(F0.001
I500
F0.5
I10
I7
I300
tp1024
(dp1025
g4
F0.98097560975609743
sg5
F0.98333333333333328
sg6
F0.97442936220505716
sg7
F0.97826165160979861
ss(F0.001
I1000
F0.5
I10
I7
I300
tp1026
(dp1027
g4
F0.99804878048780477
sg5
F0.99555555555555542
sg6
F0.99999999999999989
sg7
F0.99774642552788551
ss(F0.001
I300
F0.29999999999999999
I5
I3
I300
tp1028
(dp1029
g4
F0.89365853658536576
sg5
F0.83111111111111113
sg6
F0.83414671277166119
sg7
F0.82904214884342853
ss(F0.001
I500
F0.5
I10
I5
I300
tp1030
(dp1031
g4
F0.87463414634146341
sg5
F0.76222222222222213
sg6
F0.75664909558526583
sg7
F0.75680420282570593
ss(F0.001
I800
F0.10000000000000001
I3
I5
I300
tp1032
(dp1033
g4
F0.99414634146341452
sg5
F0.99333333333333329
sg6
F0.99363794100636194
sg7
F0.99335476540097034
ss(F0.001
I1200
F0
I2
I15
I300
tp1034
(dp1035
g4
F0.99999999999999989
sg5
F0.99999999999999989
sg6
F0.99999999999999989
sg7
F0.99999999999999989
ss(F0.001
I1200
F0.10000000000000001
I2
I3
I300
tp1036
(dp1037
g4
F0.9639024390243901
sg5
F0.96111111111111114
sg6
F0.9608125748583578
sg7
F0.95898516091848973
ss(F0.001
I800
F0.10000000000000001
I7
I3
I300
tp1038
(dp1039
g4
F0.87853658536585366
sg5
F0.76000000000000001
sg6
F0.76753190117858872
sg7
F0.76157165330629517
ss(F0.001
I1000
F0.75
I7
I10
I300
tp1040
(dp1041
g4
F0.98926829268292671
sg5
F0.98555555555555563
sg6
F0.99019167835437127
sg7
F0.98776322469863065
ss(F0.001
I300
F0.10000000000000001
I3
I3
I300
tp1042
(dp1043
g4
F0.8951219512195121
sg5
F0.79222222222222227
sg6
F0.86728519776167179
sg7
F0.82574190857048813
ss(F0.001
I1200
F0
I10
I5
I300
tp1044
(dp1045
g4
F0.98097560975609743
sg5
F0.99111111111111116
sg6
F0.96874852429825697
sg7
F0.97912390972896657
ss(F0.001
I300
F0.5
I5
I7
I300
tp1046
(dp1047
g4
F0.96439024390243888
sg5
F0.96666666666666656
sg6
F0.95443193401418935
sg7
F0.95936584193875973
ss(F0.001
I500
F0.29999999999999999
I2
I5
I300
tp1048
(dp1049
g4
F0.98146341463414621
sg5
F0.97333333333333327
sg6
F0.98454589000036596
sg7
F0.97857953407740539
ss(F0.001
I500
F0.29999999999999999
I7
I5
I300
tp1050
(dp1051
g4
F0.97219512195121938
sg5
F0.9622222222222222
sg6
F0.97551708970610429
sg7
F0.96780863333961586
ss(F0.001
I800
F0
I2
I10
I300
tp1052
(dp1053
g4
F0.99951219512195111
sg5
F0.99888888888888872
sg6
F0.99999999999999989
sg7
F0.99944134078212277
ss(F0.001
I1000
F0.75
I10
I3
I300
tp1054
(dp1055
g4
F0.73268292682926839
sg5
F0.45777777777777784
sg6
F0.43970428270266981
sg7
F0.44721972632480678
ss(F0.001
I800
F0.5
I7
I3
I300
tp1056
(dp1057
g4
F0.92243902439024372
sg5
F0.89111111111111119
sg6
F0.94003719106296124
sg7
F0.90705177726749486
ss(F0.001
I1000
F0.75
I7
I3
I300
tp1058
(dp1059
g4
F0.7678048780487805
sg5
F0.53333333333333333
sg6
F0.5419686146433863
sg7
F0.53563921349040078
ss(F0.001
I1000
F0.5
I10
I15
I300
tp1060
(dp1061
g4
F0.99999999999999989
sg5
F0.99999999999999989
sg6
F0.99999999999999989
sg7
F0.99999999999999989
ss(F0.001
I500
F0.75
I10
I10
I300
tp1062
(dp1063
g4
F0.95609756097560961
sg5
F0.96999999999999986
sg6
F0.93507621421523412
sg7
F0.95129198527065006
ss(F0.001
I800
F0.29999999999999999
I3
I10
I300
tp1064
(dp1065
g4
F0.99999999999999989
sg5
F0.99999999999999989
sg6
F0.99999999999999989
sg7
F0.99999999999999989
ss(F0.001
I800
F0.10000000000000001
I7
I15
I300
tp1066
(dp1067
g4
F0.99999999999999989
sg5
F0.99999999999999989
sg6
F0.99999999999999989
sg7
F0.99999999999999989
ss(F0.001
I300
F0
I5
I15
I300
tp1068
(dp1069
g4
F0.99999999999999989
sg5
F0.99999999999999989
sg6
F0.99999999999999989
sg7
F0.99999999999999989
ss(F0.001
I300
F0
I7
I15
I300
tp1070
(dp1071
g4
F0.99902439024390233
sg5
F0.99999999999999989
sg6
F0.9978021978021977
sg7
F0.99889502762430926
ss(F0.001
I800
F0.75
I7
I10
I300
tp1072
(dp1073
g4
F0.9843902439024389
sg5
F0.98666666666666669
sg6
F0.97809048556680822
sg7
F0.98231963355418905
ss(F0.001
I300
F0.75
I10
I15
I300
tp1074
(dp1075
g4
F0.9434146341463413
sg5
F0.96333333333333326
sg6
F0.91372867310264305
sg7
F0.937356155462304
ss(F0.001
I800
F0.75
I7
I15
I300
tp1076
(dp1077
g4
F0.99268292682926818
sg5
F0.99000000000000021
sg6
F0.99336996336996342
sg7
F0.99166342582590006
ss(F0.001
I1000
F0.29999999999999999
I10
I10
I300
tp1078
(dp1079
g4
F0.99951219512195111
sg5
F0.99888888888888872
sg6
F0.99999999999999989
sg7
F0.99944134078212277
ss(F0.001
I800
F0.10000000000000001
I3
I10
I300
tp1080
(dp1081
g4
F0.99999999999999989
sg5
F0.99999999999999989
sg6
F0.99999999999999989
sg7
F0.99999999999999989
ss(F0.001
I300
F0.10000000000000001
I7
I3
I300
tp1082
(dp1083
g4
F0.86975609756097561
sg5
F0.73222222222222222
sg6
F0.7716062243963322
sg7
F0.7501266887649003
ss(F0.001
I1000
F0
I3
I7
I300
tp1084
(dp1085
g4
F0.99902439024390233
sg5
F0.99777777777777765
sg6
F0.99999999999999989
sg7
F0.99887640449438198
ss(F0.001
I1200
F0
I5
I3
I300
tp1086
(dp1087
g4
F0.88829268292682917
sg5
F0.7944444444444444
sg6
F0.85797143891270367
sg7
F0.81821249794417172
ss(F0.001
I1200
F0.75
I3
I15
I300
tp1088
(dp1089
g4
F0.99756097560975598
sg5
F0.99666666666666659
sg6
F0.99778998778998773
sg7
F0.99721908426528938
ss(F0.001
I1000
F0.5
I10
I5
I300
tp1090
(dp1091
g4
F0.93121951219512189
sg5
F0.8933333333333332
sg6
F0.8529772407835331
sg7
F0.87246880351730005
ss(F0.001
I1200
F0.75
I10
I10
I300
tp1092
(dp1093
g4
F0.98878048780487793
sg5
F0.9933333333333334
sg6
F0.98202458686930738
sg7
F0.98747997836772583
ss(F0.001
I800
F0.5
I2
I7
I300
tp1094
(dp1095
g4
F0.99414634146341452
sg5
F0.99777777777777765
sg6
F0.98915355331905108
sg7
F0.9933878707475382
ss(F0.001
I300
F0.75
I3
I3
I300
tp1096
(dp1097
g4
F0.8034146341463414
sg5
F0.72333333333333338
sg6
F0.81577217058140183
sg7
F0.76066969495794656
ss(F0.001
I1200
F0.29999999999999999
I7
I5
I300
tp1098
(dp1099
g4
F0.97804878048780475
sg5
F0.99555555555555542
sg6
F0.95790792083688436
sg7
F0.97593697056518702
ss(F0.001
I1000
F0.10000000000000001
I7
I3
I300
tp1100
(dp1101
g4
F0.79073170731707321
sg5
F0.56777777777777783
sg6
F0.55987155830180724
sg7
F0.56200551740659144
ss(F0.001
I800
F0.75
I7
I5
I300
tp1102
(dp1103
g4
F0.93414634146341446
sg5
F0.94000000000000006
sg6
F0.91765543198049293
sg7
F0.92600366943725421
ss(F0.001
I1200
F0.29999999999999999
I2
I3
I300
tp1104
(dp1105
g4
F0.98243902439024378
sg5
F0.99999999999999989
sg6
F0.96222295116011247
sg7
F0.98057352661960107
ss(F0.001
I500
F0
I5
I7
I300
tp1106
(dp1107
g4
F0.9946341463414633
sg5
F0.99888888888888883
sg6
F0.98942529244948596
sg7
F0.99402370388036954
ss(F0.001
I1200
F0.10000000000000001
I5
I5
I300
tp1108
(dp1109
g4
F0.99317073170731696
sg5
F0.98888888888888871
sg6
F0.99562828475871945
sg7
F0.99217176553643993
ss(F0.001
I800
F0.75
I3
I3
I300
tp1110
(dp1111
g4
F0.87219512195121929
sg5
F0.80111111111111122
sg6
F0.90216792829948578
sg7
F0.84308855898964186
ss(F0.001
I800
F0
I2
I15
I300
tp1112
(dp1113
g4
F0.99999999999999989
sg5
F0.99999999999999989
sg6
F0.99999999999999989
sg7
F0.99999999999999989
ss(F0.001
I1000
F0
I3
I10
I300
tp1114
(dp1115
g4
F0.99999999999999989
sg5
F0.99999999999999989
sg6
F0.99999999999999989
sg7
F0.99999999999999989
ss(F0.001
I800
F0.5
I7
I7
I300
tp1116
(dp1117
g4
F0.9970731707317072
sg5
F0.99888888888888883
sg6
F0.99464577975216262
sg7
F0.99671494155079932
ss(F0.001
I500
F0.75
I10
I7
I300
tp1118
(dp1119
g4
F0.93414634146341446
sg5
F0.96777777777777785
sg6
F0.89340031707990941
sg7
F0.92833543398748397
ss(F0.001
I1000
F0.10000000000000001
I7
I5
I300
tp1120
(dp1121
g4
F0.98487804878048768
sg5
F0.97888888888888892
sg6
F0.98763627676671151
sg7
F0.98261311697758991
ss(F0.001
I1200
F0
I7
I3
I300
tp1122
(dp1123
g4
F0.80390243902439029
sg5
F0.62555555555555553
sg6
F0.63383977094163602
sg7
F0.62577464791334025
ss(F0.001
I300
F0.5
I5
I3
I300
tp1124
(dp1125
g4
F0.87170731707317051
sg5
F0.87
sg6
F0.85658810687829035
sg7
F0.85830561080662005
ss(F0.001
I1000
F0
I2
I5
I300
tp1126
(dp1127
g4
F0.99414634146341452
sg5
F0.98999999999999988
sg6
F0.99672718585762055
sg7
F0.99327652748128392
ss(F0.001
I800
F0.75
I5
I10
I300
tp1128
(dp1129
g4
F0.98487804878048768
sg5
F0.9900000000000001
sg6
F0.97611715435847812
sg7
F0.9829507908347932
ss(F0.001
I300
F0.75
I7
I3
I300
tp1130
(dp1131
g4
F0.77170731707317064
sg5
F0.62666666666666659
sg6
F0.65855716366392114
sg7
F0.63534417986757863
ss(F0.001
I1200
F0.10000000000000001
I10
I7
I300
tp1132
(dp1133
g4
F0.99170731707317061
sg5
F0.98999999999999999
sg6
F0.99137296560978327
sg7
F0.99047902236562368
ss(F0.001
I300
F0
I7
I7
I300
tp1134
(dp1135
g4
F0.98878048780487793
sg5
F0.99444444444444435
sg6
F0.98073542195919905
sg7
F0.9873690185606685
ss(F0.001
I300
F0
I2
I15
I300
tp1136
(dp1137
g4
F0.99999999999999989
sg5
F0.99999999999999989
sg6
F0.99999999999999989
sg7
F0.99999999999999989
ss(F0.001
I1000
F0.75
I2
I10
I300
tp1138
(dp1139
g4
F0.98292682926829256
sg5
F0.97888888888888892
sg6
F0.98215756777554541
sg7
F0.98048975440781128
ss(F0.001
I300
F0.5
I10
I10
I300
tp1140
(dp1141
g4
F0.9868292682926828
sg5
F0.97999999999999998
sg6
F0.9905857029568369
sg7
F0.98483117277845589
ss(F0.001
I500
F0.10000000000000001
I3
I10
I300
tp1142
(dp1143
g4
F0.99999999999999989
sg5
F0.99999999999999989
sg6
F0.99999999999999989
sg7
F0.99999999999999989
ss(F0.001
I800
F0.5
I5
I5
I300
tp1144
(dp1145
g4
F0.97756097560975597
sg5
F0.97666666666666657
sg6
F0.97358964220703648
sg7
F0.97455866231260535
ss(F0.001
I800
F0.29999999999999999
I2
I10
I300
tp1146
(dp1147
g4
F0.99999999999999989
sg5
F0.99999999999999989
sg6
F0.99999999999999989
sg7
F0.99999999999999989
ss(F0.001
I1200
F0
I7
I15
I300
tp1148
(dp1149
g4
F0.99999999999999989
sg5
F0.99999999999999989
sg6
F0.99999999999999989
sg7
F0.99999999999999989
ss(F0.001
I1200
F0
I10
I3
I300
tp1150
(dp1151
g4
F0.70487804878048788
sg5
F0.37777777777777777
sg6
F0.35531508965775549
sg7
F0.36521497869716329
ss(F0.001
I500
F0.5
I3
I10
I300
tp1152
(dp1153
g4
F0.9970731707317072
sg5
F0.99888888888888883
sg6
F0.99452938365981836
sg7
F0.99669115414971754
ss(F0.001
I500
F0.29999999999999999
I5
I10
I300
tp1154
(dp1155
g4
F0.99951219512195111
sg5
F0.99999999999999989
sg6
F0.99890109890109879
sg7
F0.99944751381215458
ss(F0.001
I500
F0.75
I7
I5
I300
tp1156
(dp1157
g4
F0.90731707317073151
sg5
F0.9011111111111112
sg6
F0.89544375651217689
sg7
F0.89446724346021511
ss(F0.001
I500
F0.29999999999999999
I2
I3
I300
tp1158
(dp1159
g4
F0.94780487804878033
sg5
F0.94666666666666655
sg6
F0.94263900771168796
sg7
F0.94068902297787282
ss(F0.001
I1200
F0.75
I2
I3
I300
tp1160
(dp1161
g4
F0.88634146341463393
sg5
F0.83444444444444443
sg6
F0.905960184838981
sg7
F0.86297551137998996
ss(F0.001
I300
F0.75
I2
I3
I300
tp1162
(dp1163
g4
F0.79365853658536567
sg5
F0.72666666666666657
sg6
F0.79897527580122996
sg7
F0.74898245962165955
ss(F0.001
I500
F0.29999999999999999
I7
I7
I300
tp1164
(dp1165
g4
F0.99024390243902427
sg5
F0.99333333333333329
sg6
F0.9851005848989719
sg7
F0.98897473057308638
ss(F0.001
I1200
F0.29999999999999999
I3
I3
I300
tp1166
(dp1167
g4
F0.97609756097560962
sg5
F0.97444444444444434
sg6
F0.97304306794783801
sg7
F0.97260414572770493
ss(F0.001
I300
F0.29999999999999999
I10
I15
I300
tp1168
(dp1169
g4
F0.9970731707317072
sg5
F0.99999999999999989
sg6
F0.9934543717152412
sg7
F0.99669722542650707
ss(F0.001
I500
F0.75
I10
I3
I300
tp1170
(dp1171
g4
F0.79560975609756079
sg5
F0.68222222222222229
sg6
F0.67006462671323008
sg7
F0.6668123209464254
ss(F0.001
I500
F0.75
I5
I15
I300
tp1172
(dp1173
g4
F0.97902439024390231
sg5
F0.98444444444444446
sg6
F0.96875107434903218
sg7
F0.97637744475000143
ss(F0.001
I500
F0.5
I7
I3
I300
tp1174
(dp1175
g4
F0.93756097560975593
sg5
F0.9688888888888888
sg6
F0.89990046710698668
sg7
F0.93165766663726157
ss(F0.001
I800
F0.29999999999999999
I2
I7
I300
tp1176
(dp1177
g4
F0.99951219512195111
sg5
F0.99888888888888872
sg6
F0.99999999999999989
sg7
F0.99944134078212277
ss(F0.001
I1200
F0
I7
I10
I300
tp1178
(dp1179
g4
F0.99999999999999989
sg5
F0.99999999999999989
sg6
F0.99999999999999989
sg7
F0.99999999999999989
ss(F0.001
I300
F0
I5
I7
I300
tp1180
(dp1181
g4
F0.99268292682926818
sg5
F0.99777777777777765
sg6
F0.98628488456064678
sg7
F0.99184235743731919
ss(F0.001
I1200
F0.10000000000000001
I5
I10
I300
tp1182
(dp1183
g4
F0.99999999999999989
sg5
F0.99999999999999989
sg6
F0.99999999999999989
sg7
F0.99999999999999989
ss(F0.001
I1200
F0
I3
I5
I300
tp1184
(dp1185
g4
F0.98390243902439012
sg5
F0.99555555555555553
sg6
F0.97048338494438502
sg7
F0.98232736290537981
ss(F0.001
I1000
F0.29999999999999999
I7
I3
I300
tp1186
(dp1187
g4
F0.76243902439024414
sg5
F0.48555555555555557
sg6
F0.4750274276741332
sg7
F0.47950436339133728
ss(F0.001
I1000
F0.75
I10
I15
I300
tp1188
(dp1189
g4
F0.9946341463414633
sg5
F0.9933333333333334
sg6
F0.99446886446886451
sg7
F0.99388571663734482
ss(F0.001
I800
F0.75
I2
I15
I300
tp1190
(dp1191
g4
F0.99219512195121939
sg5
F0.98888888888888893
sg6
F0.99332084893882644
sg7
F0.99109248913718195
ss(F0.001
I500
F0.5
I2
I5
I300
tp1192
(dp1193
g4
F0.97121951219512181
sg5
F0.97333333333333327
sg6
F0.96243630435704064
sg7
F0.96751959297518098
ss(F0.001
I1200
F0.75
I2
I15
I300
tp1194
(dp1195
g4
F0.99658536585365842
sg5
F0.99555555555555553
sg6
F0.99669108669108664
sg7
F0.99610793885956694
ss(F0.001
I1200
F0
I3
I3
I300
tp1196
(dp1197
g4
F0.96439024390243888
sg5
F0.97444444444444445
sg6
F0.95029549450279405
sg7
F0.95971097739175237
ss(F0.001
I300
F0
I2
I5
I300
tp1198
(dp1199
g4
F0.98487804878048768
sg5
F0.97444444444444445
sg6
F0.99126824865955288
sg7
F0.98246749406320411
ss(F0.001
I1000
F0
I7
I3
I300
tp1200
(dp1201
g4
F0.87756097560975599
sg5
F0.77777777777777779
sg6
F0.84598917171907806
sg7
F0.80604160846667827
ss(F0.001
I500
F0
I5
I10
I300
tp1202
(dp1203
g4
F0.99999999999999989
sg5
F0.99999999999999989
sg6
F0.99999999999999989
sg7
F0.99999999999999989
ss(F0.001
I300
F0.10000000000000001
I3
I5
I300
tp1204
(dp1205
g4
F0.97317073170731694
sg5
F0.95222222222222219
sg6
F0.98716295269406651
sg7
F0.96796846958282035
ss(F0.001
I500
F0
I3
I15
I300
tp1206
(dp1207
g4
F0.99999999999999989
sg5
F0.99999999999999989
sg6
F0.99999999999999989
sg7
F0.99999999999999989
ss(F0.001
I1000
F0.75
I7
I5
I300
tp1208
(dp1209
g4
F0.95658536585365839
sg5
F0.9622222222222222
sg6
F0.94297984899922882
sg7
F0.95071363668837894
ss(F0.001
I500
F0
I2
I3
I300
tp1210
(dp1211
g4
F0.9409756097560974
sg5
F0.93222222222222206
sg6
F0.9373792561214338
sg7
F0.92988852994156035
ss(F0.001
I800
F0.29999999999999999
I10
I7
I300
tp1212
(dp1213
g4
F0.99073170731707305
sg5
F0.99555555555555553
sg6
F0.98413901601830656
sg7
F0.98962011417576767
ss(F0.001
I1200
F0.29999999999999999
I7
I7
I300
tp1214
(dp1215
g4
F0.9970731707317072
sg5
F0.99888888888888883
sg6
F0.9945532728141423
sg7
F0.99669105239647526
ss(F0.001
I500
F0.5
I3
I5
I300
tp1216
(dp1217
g4
F0.96926829268292669
sg5
F0.9588888888888889
sg6
F0.97223363114132066
sg7
F0.96432898248899834
ss(F0.001
I1000
F0.10000000000000001
I3
I10
I300
tp1218
(dp1219
g4
F0.99999999999999989
sg5
F0.99999999999999989
sg6
F0.99999999999999989
sg7
F0.99999999999999989
ss(F0.001
I500
F0.5
I10
I15
I300
tp1220
(dp1221
g4
F0.99951219512195111
sg5
F0.99999999999999989
sg6
F0.99890109890109879
sg7
F0.99944751381215458
ss(F0.001
I300
F0
I7
I10
I300
tp1222
(dp1223
g4
F0.99853658536585355
sg5
F0.99777777777777765
sg6
F0.99890109890109879
sg7
F0.99832391830653666
ss(F0.001
I1200
F0.10000000000000001
I5
I7
I300
tp1224
(dp1225
g4
F0.99365853658536574
sg5
F0.99222222222222212
sg6
F0.99357076780758546
sg7
F0.9926809430830541
ss(F0.001
I1200
F0.5
I2
I15
I300
tp1226
(dp1227
g4
F0.99999999999999989
sg5
F0.99999999999999989
sg6
F0.99999999999999989
sg7
F0.99999999999999989
ss(F0.001
I800
F0.5
I7
I15
I300
tp1228
(dp1229
g4
F0.99999999999999989
sg5
F0.99999999999999989
sg6
F0.99999999999999989
sg7
F0.99999999999999989
ss(F0.001
I800
F0.75
I10
I7
I300
tp1230
(dp1231
g4
F0.96292682926829254
sg5
F0.98222222222222222
sg6
F0.93862177254491264
sg7
F0.95926300894429628
ss(F0.001
I300
F0
I7
I5
I300
tp1232
(dp1233
g4
F0.96878048780487791
sg5
F0.95222222222222208
sg6
F0.97818098568098555
sg7
F0.96390720411761122
ss(F0.001
I300
F0.29999999999999999
I7
I10
I300
tp1234
(dp1235
g4
F0.99268292682926818
sg5
F0.99666666666666648
sg6
F0.98746501945259701
sg7
F0.99184589212223462
ss(F0.001
I1200
F0
I7
I5
I300
tp1236
(dp1237
g4
F0.98829268292682915
sg5
F0.98333333333333317
sg6
F0.99028574365299604
sg7
F0.98656813230218909
ss(F0.001
I300
F0.75
I2
I7
I300
tp1238
(dp1239
g4
F0.85999999999999976
sg5
F0.85000000000000009
sg6
F0.83966675999581608
sg7
F0.84236709141735289
ss(F0.001
I300
F0.75
I2
I15
I300
tp1240
(dp1241
g4
F0.92146341463414616
sg5
F0.92888888888888888
sg6
F0.89687101397066837
sg7
F0.91221568317020774
ss(F0.001
I1000
F0.29999999999999999
I3
I3
I300
tp1242
(dp1243
g4
F0.96292682926829254
sg5
F0.96333333333333326
sg6
F0.95751498430827786
sg7
F0.95741059502941495
ss(F0.001
I300
F0.75
I2
I5
I300
tp1244
(dp1245
g4
F0.80487804878048763
sg5
F0.70888888888888879
sg6
F0.83275533758429587
sg7
F0.75699665893525081
ss(F0.001
I1000
F0
I10
I7
I300
tp1246
(dp1247
g4
F0.99073170731707305
sg5
F0.99999999999999989
sg6
F0.97972324611469219
sg7
F0.98965816166912091
ss(F0.001
I1200
F0.5
I7
I7
I300
tp1248
(dp1249
g4
F0.99609756097560964
sg5
F0.99777777777777765
sg6
F0.99363794100636194
sg7
F0.99562121560383399
ss(F0.001
I500
F0.10000000000000001
I10
I5
I300
tp1250
(dp1251
g4
F0.88731707317073172
sg5
F0.75888888888888895
sg6
F0.78574468085106375
sg7
F0.76885048210431117
ss(F0.001
I300
F0.29999999999999999
I5
I15
I300
tp1252
(dp1253
g4
F0.99999999999999989
sg5
F0.99999999999999989
sg6
F0.99999999999999989
sg7
F0.99999999999999989
ss(F0.001
I1200
F0
I2
I7
I300
tp1254
(dp1255
g4
F0.99804878048780477
sg5
F0.99666666666666659
sg6
F0.99890109890109879
sg7
F0.99776525908865954
ss.