(dp1
(F0.01
I1200
F0
I5
I4
I300
tp2
(dp3
S'acc'
p4
F0.98292682926829256
sS'rec'
p5
F0.96555555555555561
sS'prec'
p6
F0.99550505050505056
sS'f1'
p7
F0.98021196840668323
ss(F0.01
I600
F0
I2
I8
I300
tp8
(dp9
g4
F0.9741463414634145
sg5
F0.95555555555555571
sg6
F0.98521421107628027
sg7
F0.97013224032363277
ss(F0.01
I1200
F0
I5
I2
I300
tp10
(dp11
g4
F0.68439024390243908
sg5
F0.28666666666666668
sg6
F0.29430512016718913
sg7
F0.29043356820923005
ss(F0.01
I300
F0
I5
I10
I300
tp12
(dp13
g4
F0.98097560975609743
sg5
F0.95777777777777806
sg6
F0.99887640449438186
sg7
F0.97786947689182346
ss(F0.01
I1200
F0
I3
I4
I300
tp14
(dp15
g4
F0.93170731707317056
sg5
F0.8600000000000001
sg6
F0.88409090909090915
sg7
F0.87185903983656821
ss(F0.01
I100
F0
I2
I8
I300
tp16
(dp17
g4
F0.97121951219512181
sg5
F0.95555555555555571
sg6
F0.97839602925809843
sg7
F0.96683806259125282
ss(F0.01
I1200
F0
I3
I10
I300
tp18
(dp19
g4
F0.97853658536585353
sg5
F0.96111111111111125
sg6
F0.98981073814471721
sg7
F0.975210283452422
ss(F0.01
I900
F0
I2
I4
I300
tp20
(dp21
g4
F0.9741463414634145
sg5
F0.95555555555555571
sg6
F0.98521421107628016
sg7
F0.97013224032363266
ss(F0.01
I900
F0
I4
I4
I300
tp22
(dp23
g4
F0.93804878048780482
sg5
F0.86333333333333351
sg6
F0.89546731358529119
sg7
F0.87906968118191531
ss(F0.01
I300
F0
I4
I6
I300
tp24
(dp25
g4
F0.97804878048780475
sg5
F0.95555555555555571
sg6
F0.99427899686520371
sg7
F0.97451827357559617
ss(F0.01
I100
F0
I2
I10
I300
tp26
(dp27
g4
F0.97268292682926816
sg5
F0.95555555555555571
sg6
F0.98179205851619655
sg7
F0.96848204959517115
ss(F0.01
I600
F0
I3
I8
I300
tp28
(dp29
g4
F0.97463414634146328
sg5
F0.95444444444444443
sg6
F0.9874735729386892
sg7
F0.97064606741573056
ss(F0.01
I900
F0
I2
I6
I300
tp30
(dp31
g4
F0.97560975609756084
sg5
F0.95555555555555571
sg6
F0.98863636363636365
sg7
F0.97178243105209428
ss(F0.01
I300
F0
I2
I4
I300
tp32
(dp33
g4
F0.97560975609756084
sg5
F0.95555555555555571
sg6
F0.98861024033437828
sg7
F0.97177622732755109
ss(F0.01
I1200
F0
I4
I10
I300
tp34
(dp35
g4
F0.9843902439024389
sg5
F0.97111111111111115
sg6
F0.99325674325674318
sg7
F0.98195810279468754
ss(F0.01
I900
F0
I4
I10
I300
tp36
(dp37
g4
F0.98292682926829256
sg5
F0.96333333333333337
sg6
F0.99775252525252522
sg7
F0.98019331575130475
ss(F0.01
I300
F0
I4
I4
I300
tp38
(dp39
g4
F0.9765853658536584
sg5
F0.95555555555555571
sg6
F0.99090909090909096
sg7
F0.97288049029622092
ss(F0.01
I300
F0
I2
I2
I300
tp40
(dp41
g4
F0.93365853658536579
sg5
F0.8600000000000001
sg6
F0.88858411703239293
sg7
F0.87404275087573524
ss(F0.01
I1200
F0
I4
I8
I300
tp42
(dp43
g4
F0.98243902439024378
sg5
F0.96555555555555561
sg6
F0.99436868686868685
sg7
F0.9796790606503043
ss(F0.01
I100
F0
I4
I6
I300
tp44
(dp45
g4
F0.97512195121951206
sg5
F0.95555555555555571
sg6
F0.98748693834900747
sg7
F0.97123029956775941
ss(F0.01
I900
F0
I3
I8
I300
tp46
(dp47
g4
F0.98048780487804865
sg5
F0.96000000000000019
sg6
F0.99545454545454537
sg7
F0.9773748723186928
ss(F0.01
I900
F0
I4
I8
I300
tp48
(dp49
g4
F0.97999999999999987
sg5
F0.96000000000000019
sg6
F0.99433094994892746
sg7
F0.97682249017067946
ss(F0.01
I1200
F0
I4
I2
I300
tp50
(dp51
g4
F0.89365853658536576
sg5
F0.76444444444444448
sg6
F0.79315569487983295
sg7
F0.77851780036125895
ss(F0.01
I600
F0
I3
I4
I300
tp52
(dp53
g4
F0.97365853658536572
sg5
F0.95555555555555571
sg6
F0.98409090909090924
sg7
F0.96958631256384098
ss(F0.01
I900
F0
I5
I8
I300
tp54
(dp55
g4
F0.98243902439024378
sg5
F0.96000000000000019
sg6
F0.99999999999999989
sg7
F0.97957748307681669
ss(F0.01
I1200
F0
I2
I4
I300
tp56
(dp57
g4
F0.89121951219512185
sg5
F0.76444444444444448
sg6
F0.78753830439223715
sg7
F0.77578805758926295
ss(F0.01
I1200
F0
I5
I10
I300
tp58
(dp59
g4
F0.98731707317073159
sg5
F0.97444444444444456
sg6
F0.99659090909090908
sg7
F0.98534835658283271
ss(F0.01
I900
F0
I3
I6
I300
tp60
(dp61
g4
F0.97560975609756084
sg5
F0.95555555555555571
sg6
F0.98873737373737369
sg7
F0.97180683236863041
ss(F0.01
I300
F0
I3
I4
I300
tp62
(dp63
g4
F0.97463414634146328
sg5
F0.95555555555555571
sg6
F0.98636363636363644
sg7
F0.97068437180796763
ss(F0.01
I600
F0
I5
I8
I300
tp64
(dp65
g4
F0.97902439024390231
sg5
F0.95777777777777806
sg6
F0.99435648621041861
sg7
F0.97568591254329762
ss(F0.01
I900
F0
I5
I2
I300
tp66
(dp67
g4
F0.60292682926829277
sg5
F0.09555555555555556
sg6
F0.10000000000000001
sg7
F0.097727272727272732
ss(F0.01
I1200
F0
I2
I6
I300
tp68
(dp69
g4
F0.97121951219512181
sg5
F0.95555555555555571
sg6
F0.97854840540233801
sg7
F0.96687476738383804
ss(F0.01
I300
F0
I3
I2
I300
tp70
(dp71
g4
F0.8926829268292682
sg5
F0.76444444444444448
sg6
F0.79093433365033528
sg7
F0.77743204459318138
ss(F0.01
I600
F0
I5
I2
I300
tp72
(dp73
g4
F0.68487804878048786
sg5
F0.28666666666666668
sg6
F0.29545454545454547
sg7
F0.29098569969356491
ss(F0.01
I900
F0
I5
I4
I300
tp74
(dp75
g4
F0.93902439024390238
sg5
F0.86333333333333329
sg6
F0.89772727272727271
sg7
F0.88016146335617818
ss(F0.01
I100
F0
I5
I10
I300
tp76
(dp77
g4
F0.97902439024390231
sg5
F0.95555555555555571
sg6
F0.9965778474399164
sg7
F0.97562253654426589
ss(F0.01
I300
F0
I5
I6
I300
tp78
(dp79
g4
F0.97853658536585353
sg5
F0.95555555555555571
sg6
F0.99545454545454537
sg7
F0.97507660878447422
ss(F0.01
I100
F0
I3
I4
I300
tp80
(dp81
g4
F0.93170731707317067
sg5
F0.8600000000000001
sg6
F0.88409002853016805
sg7
F0.87185893586353114
ss(F0.01
I300
F0
I3
I8
I300
tp82
(dp83
g4
F0.97463414634146328
sg5
F0.95555555555555571
sg6
F0.98636363636363655
sg7
F0.97068437180796763
ss(F0.01
I600
F0
I2
I10
I300
tp84
(dp85
g4
F0.97317073170731694
sg5
F0.95555555555555571
sg6
F0.98299284984678237
sg7
F0.9690464845555552
ss(F0.01
I300
F0
I5
I8
I300
tp86
(dp87
g4
F0.98048780487804865
sg5
F0.95555555555555571
sg6
F0.99999999999999989
sg7
F0.97727272727272751
ss(F0.01
I100
F0
I3
I2
I300
tp88
(dp89
g4
F0.84487804878048778
sg5
F0.65888888888888897
sg6
F0.68763506608334191
sg7
F0.6727906517628548
ss(F0.01
I1200
F0
I3
I6
I300
tp90
(dp91
g4
F0.97999999999999987
sg5
F0.96000000000000019
sg6
F0.99430512016718908
sg7
F0.97682923310422853
ss(F0.01
I900
F0
I2
I8
I300
tp92
(dp93
g4
F0.97463414634146328
sg5
F0.95444444444444465
sg6
F0.98751218109025174
sg7
F0.97065858730077537
ss(F0.01
I100
F0
I5
I6
I300
tp94
(dp95
g4
F0.97951219512195109
sg5
F0.95555555555555571
sg6
F0.99770114942528731
sg7
F0.97616846430405779
ss(F0.01
I600
F0
I2
I4
I300
tp96
(dp97
g4
F0.9741463414634145
sg5
F0.95555555555555571
sg6
F0.98521421107628016
sg7
F0.97013224032363266
ss(F0.01
I300
F0
I4
I10
I300
tp98
(dp99
g4
F0.97853658536585353
sg5
F0.95555555555555571
sg6
F0.99545454545454548
sg7
F0.97507660878447422
ss(F0.01
I900
F0
I2
I10
I300
tp100
(dp101
g4
F0.97365853658536572
sg5
F0.95555555555555571
sg6
F0.98409090909090913
sg7
F0.96958631256384098
ss(F0.01
I600
F0
I2
I6
I300
tp102
(dp103
g4
F0.9741463414634145
sg5
F0.95555555555555571
sg6
F0.98521421107628016
sg7
F0.97013224032363277
ss(F0.01
I100
F0
I4
I2
I300
tp104
(dp105
g4
F0.89219512195121953
sg5
F0.76222222222222225
sg6
F0.79205763563570608
sg7
F0.77680914118414202
ss(F0.01
I600
F0
I4
I8
I300
tp106
(dp107
g4
F0.93853658536585349
sg5
F0.86444444444444457
sg6
F0.8954545454545455
sg7
F0.87964121613054147
ss(F0.01
I300
F0
I4
I8
I300
tp108
(dp109
g4
F0.97756097560975597
sg5
F0.95444444444444465
sg6
F0.99427899686520382
sg7
F0.97394046155710612
ss(F0.01
I600
F0
I3
I10
I300
tp110
(dp111
g4
F0.97999999999999987
sg5
F0.95777777777777784
sg6
F0.99662921348314593
sg7
F0.97679046405729497
ss(F0.01
I300
F0
I2
I6
I300
tp112
(dp113
g4
F0.93170731707317056
sg5
F0.8600000000000001
sg6
F0.88406478578892389
sg7
F0.87185283611202502
ss(F0.01
I1200
F0
I4
I4
I300
tp114
(dp115
g4
F0.97756097560975597
sg5
F0.95555555555555571
sg6
F0.99318181818181828
sg7
F0.97397854954034757
ss(F0.01
I600
F0
I4
I6
I300
tp116
(dp117
g4
F0.93658536585365848
sg5
F0.8600000000000001
sg6
F0.89545454545454539
sg7
F0.87734933605720145
ss(F0.01
I100
F0
I2
I2
I300
tp118
(dp119
g4
F0.88
sg5
F0.74555555555555553
sg6
F0.78063754673510777
sg7
F0.76235223329168289
ss(F0.01
I1200
F0
I5
I8
I300
tp120
(dp121
g4
F0.98390243902439012
sg5
F0.96888888888888913
sg6
F0.99433037269244173
sg7
F0.98137429631344086
ss(F0.01
I300
F0
I2
I8
I300
tp122
(dp123
g4
F0.97219512195121938
sg5
F0.95555555555555571
sg6
F0.98066875653082564
sg7
F0.96793612183537936
ss(F0.01
I600
F0
I4
I4
I300
tp124
(dp125
g4
F0.93268292682926823
sg5
F0.85888888888888903
sg6
F0.88747357293868934
sg7
F0.87291879468845779
ss(F0.01
I900
F0
I3
I10
I300
tp126
(dp127
g4
F0.98243902439024378
sg5
F0.96777777777777785
sg6
F0.9921209377389153
sg7
F0.9797108396870482
ss(F0.01
I600
F0
I3
I6
I300
tp128
(dp129
g4
F0.9765853658536584
sg5
F0.95444444444444443
sg6
F0.99201902748414383
sg7
F0.97284218590398386
ss(F0.01
I300
F0
I2
I10
I300
tp130
(dp131
g4
F0.97317073170731694
sg5
F0.95555555555555571
sg6
F0.98296672654479711
sg7
F0.96904028083101212
ss(F0.01
I1200
F0
I2
I2
I300
tp132
(dp133
g4
F0.93024390243902433
sg5
F0.8600000000000001
sg6
F0.88066875653082566
sg7
F0.8702088491081067
ss(F0.01
I300
F0
I3
I6
I300
tp134
(dp135
g4
F0.97512195121951206
sg5
F0.95555555555555571
sg6
F0.987538304392237
sg7
F0.97124260304380849
ss(F0.01
I600
F0
I5
I6
I300
tp136
(dp137
g4
F0.97756097560975597
sg5
F0.95666666666666678
sg6
F0.99204545454545456
sg7
F0.97400408580183884
ss(F0.01
I300
F0
I5
I2
I300
tp138
(dp139
g4
F0.80975609756097566
sg5
F0.57333333333333336
sg6
F0.59315569487983277
sg7
F0.58306325490671329
ss(F0.01
I100
F0
I3
I8
I300
tp140
(dp141
g4
F0.97219512195121938
sg5
F0.95555555555555571
sg6
F0.98066875653082564
sg7
F0.96793612183537947
ss(F0.01
I100
F0
I5
I8
I300
tp142
(dp143
g4
F0.97756097560975597
sg5
F0.95555555555555571
sg6
F0.99318181818181817
sg7
F0.97397854954034757
ss(F0.01
I300
F0
I5
I4
I300
tp144
(dp145
g4
F0.9360975609756097
sg5
F0.8600000000000001
sg6
F0.8943051201671891
sg7
F0.87679720457286658
ss(F0.01
I100
F0
I3
I6
I300
tp146
(dp147
g4
F0.97268292682926816
sg5
F0.95555555555555571
sg6
F0.98179205851619655
sg7
F0.96848204959517115
ss(F0.01
I300
F0
I3
I10
I300
tp148
(dp149
g4
F0.97804878048780475
sg5
F0.95555555555555571
sg6
F0.99430512016718908
sg7
F0.97452447730013925
ss(F0.01
I1200
F0
I3
I2
I300
tp150
(dp151
g4
F0.85121951219512193
sg5
F0.66888888888888887
sg6
F0.69200626959247657
sg7
F0.6802383961496512
ss(F0.01
I100
F0
I5
I2
I300
tp152
(dp153
g4
F0.72634146341463424
sg5
F0.37777777777777777
sg6
F0.39885057471264362
sg7
F0.38799902833850125
ss(F0.01
I1200
F0
I3
I8
I300
tp154
(dp155
g4
F0.98048780487804865
sg5
F0.96000000000000019
sg6
F0.99549227259029649
sg7
F0.97736164313335039
ss(F0.01
I100
F0
I5
I4
I300
tp156
(dp157
g4
F0.85219512195121949
sg5
F0.66888888888888887
sg6
F0.69430512016718915
sg7
F0.68134265911832104
ss(F0.01
I1200
F0
I4
I6
I300
tp158
(dp159
g4
F0.98146341463414621
sg5
F0.96222222222222253
sg6
F0.9954925661105436
sg7
F0.9785108458278029
ss(F0.01
I600
F0
I2
I2
I300
tp160
(dp161
g4
F0.89414634146341465
sg5
F0.76444444444444448
sg6
F0.79430512016718902
sg7
F0.7790699318455937
ss(F0.01
I900
F0
I4
I6
I300
tp162
(dp163
g4
F0.97951219512195109
sg5
F0.9588888888888889
sg6
F0.99433094994892746
sg7
F0.97625117042206011
ss(F0.01
I900
F0
I4
I2
I300
tp164
(dp165
g4
F0.80975609756097566
sg5
F0.57333333333333336
sg6
F0.59318181818181814
sg7
F0.58306945863125648
ss(F0.01
I100
F0
I2
I4
I300
tp166
(dp167
g4
F0.96536585365853644
sg5
F0.95555555555555571
sg6
F0.96642719328112592
sg7
F0.96062657113564176
ss(F0.01
I100
F0
I4
I4
I300
tp168
(dp169
g4
F0.9765853658536584
sg5
F0.95333333333333337
sg6
F0.99318181818181805
sg7
F0.97280971837151642
ss(F0.01
I600
F0
I4
I2
I300
tp170
(dp171
g4
F0.76878048780487818
sg5
F0.4777777777777778
sg6
F0.49545454545454548
sg7
F0.48644024514811035
ss(F0.01
I300
F0
I4
I2
I300
tp172
(dp173
g4
F0.72682926829268291
sg5
F0.38222222222222224
sg6
F0.39545454545454545
sg7
F0.38871297242083763
ss(F0.01
I100
F0
I2
I6
I300
tp174
(dp175
g4
F0.97219512195121938
sg5
F0.95555555555555571
sg6
F0.98069399927206979
sg7
F0.96794222158688537
ss(F0.01
I900
F0
I2
I2
I300
tp176
(dp177
g4
F0.89073170731707318
sg5
F0.76444444444444448
sg6
F0.78636363636363638
sg7
F0.77522982635342208
ss(F0.01
I100
F0
I4
I10
I300
tp178
(dp179
g4
F0.97463414634146328
sg5
F0.95555555555555571
sg6
F0.98631138975966581
sg7
F0.97067196435888126
ss(F0.01
I600
F0
I3
I2
I300
tp180
(dp181
g4
F0.85024390243902437
sg5
F0.66888888888888887
sg6
F0.68975966562173463
sg7
F0.67914654063006774
ss(F0.01
I900
F0
I5
I10
I300
tp182
(dp183
g4
F0.98536585365853646
sg5
F0.97111111111111115
sg6
F0.99547979797979791
sg7
F0.98309471236549772
ss(F0.01
I100
F0
I4
I8
I300
tp184
(dp185
g4
F0.9765853658536584
sg5
F0.95555555555555571
sg6
F0.99090909090909096
sg7
F0.97288049029622092
ss(F0.01
I900
F0
I3
I4
I300
tp186
(dp187
g4
F0.9765853658536584
sg5
F0.956666666666667
sg6
F0.98978520188322594
sg7
F0.97290584923935453
ss(F0.01
I600
F0
I5
I10
I300
tp188
(dp189
g4
F0.98195121951219499
sg5
F0.96000000000000019
sg6
F0.99887640449438198
sg7
F0.97902510092880346
ss(F0.01
I1200
F0
I5
I6
I300
tp190
(dp191
g4
F0.94195121951219507
sg5
F0.87111111111111117
sg6
F0.89661616161616164
sg7
F0.8836213430520129
ss(F0.01
I1200
F0
I2
I8
I300
tp192
(dp193
g4
F0.97219512195121938
sg5
F0.95444444444444465
sg6
F0.98179205851619655
sg7
F0.9679042375766812
ss(F0.01
I900
F0
I3
I2
I300
tp194
(dp195
g4
F0.84975609756097559
sg5
F0.66888888888888887
sg6
F0.68861024033437823
sg7
F0.67859440914573288
ss(F0.01
I600
F0
I5
I4
I300
tp196
(dp197
g4
F0.97707317073170719
sg5
F0.95777777777777806
sg6
F0.9898110316649642
sg7
F0.97348979405504443
ss(F0.01
I900
F0
I5
I6
I300
tp198
(dp199
g4
F0.97951219512195109
sg5
F0.95888888888888912
sg6
F0.99435648621041872
sg7
F0.97626372456178767
ss(F0.01
I1200
F0
I2
I10
I300
tp200
(dp201
g4
F0.97317073170731694
sg5
F0.95555555555555571
sg6
F0.98299284984678259
sg7
F0.9690464845555552
ss(F0.01
I600
F0
I4
I10
I300
tp202
(dp203
g4
F0.98097560975609743
sg5
F0.96000000000000019
sg6
F0.99662921348314593
sg7
F0.97792672009365522
ss(F0.01
I100
F0
I3
I10
I300
tp204
(dp205
g4
F0.97268292682926816
sg5
F0.95555555555555571
sg6
F0.98181818181818192
sg7
F0.96848825331971433
ss.