(dp1
(F0.0001
I100
F0
I2
I4
I300
tp2
(dp3
S'acc'
p4
F0.51219512195121952
sS'rec'
p5
F0.40000000000000002
sS'prec'
p6
F0.17560975609756097
sS'f1'
p7
F0.2440677966101695
ss(F0.0001
I1200
F0
I5
I2
I300
tp8
(dp9
g4
F0.64731707317073184
sg5
F0.22555555555555556
sg6
F0.27061396677050886
sg7
F0.23306075652085473
ss(F0.0001
I600
F0
I3
I2
I300
tp10
(dp11
g4
F0.61170731707317083
sg5
F0.21777777777777779
sg6
F0.27622033139274516
sg7
F0.24158444686666278
ss(F0.0001
I300
F0
I4
I8
I300
tp12
(dp13
g4
F0.6839024390243903
sg5
F0.62555555555555553
sg6
F0.58790262981540786
sg7
F0.5635526394533048
ss(F0.0001
I900
F0
I3
I10
I300
tp14
(dp15
g4
F0.91999999999999982
sg5
F0.85555555555555574
sg6
F0.9656588085938318
sg7
F0.89735956469980682
ss(F0.0001
I1200
F0
I2
I2
I300
tp16
(dp17
g4
F0.65560975609756111
sg5
F0.27000000000000002
sg6
F0.34401886792452829
sg7
F0.27821252951547043
ss(F0.0001
I300
F0
I4
I10
I300
tp18
(dp19
g4
F0.70731707317073167
sg5
F0.38222222222222224
sg6
F0.65929006259110001
sg7
F0.42993553881475943
ss(F0.0001
I600
F0
I2
I2
I300
tp20
(dp21
g4
F0.60048780487804876
sg5
F0.36444444444444446
sg6
F0.32196329389036465
sg7
F0.29479199431907832
ss(F0.0001
I1200
F0
I5
I10
I300
tp22
(dp23
g4
F0.96243902439024376
sg5
F0.93888888888888888
sg6
F0.97561114768695234
sg7
F0.95650131321561094
ss(F0.0001
I600
F0
I4
I4
I300
tp24
(dp25
g4
F0.64439024390243904
sg5
F0.33000000000000002
sg6
F0.33009875696442859
sg7
F0.31444199088296038
ss(F0.0001
I100
F0
I4
I2
I300
tp26
(dp27
g4
F0.60292682926829277
sg5
F0.34222222222222221
sg6
F0.25120671666765093
sg7
F0.28268511019661402
ss(F0.0001
I1200
F0
I4
I2
I300
tp28
(dp29
g4
F0.57707317073170739
sg5
F0.056666666666666664
sg6
F0.073913043478260859
sg7
F0.064150943396226415
ss(F0.0001
I900
F0
I4
I10
I300
tp30
(dp31
g4
F0.94975609756097545
sg5
F0.89111111111111119
sg6
F0.99419561362332431
sg7
F0.93903336692011286
ss(F0.0001
I600
F0
I4
I6
I300
tp32
(dp33
g4
F0.74926829268292683
sg5
F0.48333333333333334
sg6
F0.62054705057856197
sg7
F0.50889747579141686
ss(F0.0001
I1200
F0
I3
I10
I300
tp34
(dp35
g4
F0.95317073170731692
sg5
F0.90000000000000002
sg6
F0.99314263322884
sg7
F0.94387245696113198
ss(F0.0001
I1200
F0
I5
I6
I300
tp36
(dp37
g4
F0.83317073170731692
sg5
F0.65444444444444438
sg6
F0.66800123124022504
sg7
F0.66006238914198478
ss(F0.0001
I1200
F0
I5
I8
I300
tp38
(dp39
g4
F0.91609756097560957
sg5
F0.84333333333333338
sg6
F0.96957543465210838
sg7
F0.87300132113751305
ss(F0.0001
I100
F0
I5
I4
I300
tp40
(dp41
g4
F0.60195121951219521
sg5
F0.35555555555555551
sg6
F0.37113648960665541
sg7
F0.32767335961934246
ss(F0.0001
I600
F0
I2
I6
I300
tp42
(dp43
g4
F0.69609756097560971
sg5
F0.60999999999999999
sg6
F0.64339320045320703
sg7
F0.5550159822957047
ss(F0.0001
I1200
F0
I3
I4
I300
tp44
(dp45
g4
F0.75219512195121951
sg5
F0.44444444444444442
sg6
F0.59103596749651988
sg7
F0.49789266927711795
ss(F0.0001
I300
F0
I3
I6
I300
tp46
(dp47
g4
F0.67024390243902443
sg5
F0.59111111111111114
sg6
F0.51227800099464382
sg7
F0.52757950908378415
ss(F0.0001
I100
F0
I5
I2
I300
tp48
(dp49
g4
F0.5741463414634147
sg5
F0.029999999999999999
sg6
F0.10000000000000001
sg7
F0.046153846153846149
ss(F0.0001
I100
F0
I2
I10
I300
tp50
(dp51
g4
F0.50243902439024379
sg5
F0.50444444444444447
sg6
F0.40956917816179683
sg7
F0.38475498704159933
ss(F0.0001
I900
F0
I2
I6
I300
tp52
(dp53
g4
F0.8239024390243902
sg5
F0.74444444444444435
sg6
F0.7077779784752013
sg7
F0.71578374253868271
ss(F0.0001
I600
F0
I2
I4
I300
tp54
(dp55
g4
F0.62048780487804867
sg5
F0.42444444444444451
sg6
F0.53159761332506483
sg7
F0.38844858019262257
ss(F0.0001
I900
F0
I5
I4
I300
tp56
(dp57
g4
F0.80439024390243896
sg5
F0.68555555555555558
sg6
F0.71984410705023072
sg7
F0.68570219330267757
ss(F0.0001
I300
F0
I2
I6
I300
tp58
(dp59
g4
F0.60682926829268291
sg5
F0.54888888888888887
sg6
F0.35066670036435066
sg7
F0.41808713969919131
ss(F0.0001
I100
F0
I3
I6
I300
tp60
(dp61
g4
F0.48634146341463413
sg5
F0.41666666666666674
sg6
F0.27340271117709736
sg7
F0.29823465010758027
ss(F0.0001
I600
F0
I5
I6
I300
tp62
(dp63
g4
F0.75024390243902428
sg5
F0.50666666666666671
sg6
F0.6372674988366045
sg7
F0.51295185932040011
ss(F0.0001
I300
F0
I5
I4
I300
tp64
(dp65
g4
F0.57219512195121958
sg5
F0.093333333333333338
sg6
F0.057931034482758624
sg7
F0.071489361702127663
ss(F0.0001
I1200
F0
I4
I4
I300
tp66
(dp67
g4
F0.80048780487804883
sg5
F0.63444444444444448
sg6
F0.81896172248803822
sg7
F0.64162317998459573
ss(F0.0001
I100
F0
I5
I8
I300
tp68
(dp69
g4
F0.52097560975609758
sg5
F0.28444444444444444
sg6
F0.2219512195121951
sg7
F0.20249202285769749
ss(F0.0001
I100
F0
I2
I8
I300
tp70
(dp71
g4
F0.48146341463414627
sg5
F0.70222222222222219
sg6
F0.37647305339032766
sg7
F0.43378305187421229
ss(F0.0001
I900
F0
I2
I4
I300
tp72
(dp73
g4
F0.66536585365853662
sg5
F0.37888888888888894
sg6
F0.33126757927852596
sg7
F0.34363727000815736
ss(F0.0001
I900
F0
I5
I2
I300
tp74
(dp75
g4
F0.59365853658536594
sg5
F0.082222222222222224
sg6
F0.091358024691358022
sg7
F0.086549707602339182
ss(F0.0001
I300
F0
I3
I4
I300
tp76
(dp77
g4
F0.53609756097560979
sg5
F0.20777777777777778
sg6
F0.29732832348475746
sg7
F0.13715471225859635
ss(F0.0001
I100
F0
I3
I8
I300
tp78
(dp79
g4
F0.65365853658536588
sg5
F0.53777777777777769
sg6
F0.44027245110707081
sg7
F0.45958444994146225
ss(F0.0001
I300
F0
I5
I2
I300
tp80
(dp81
g4
F0.55170731707317078
sg5
F0.098888888888888887
sg6
F0.045177664974619294
sg7
F0.06202090592334495
ss(F0.0001
I600
F0
I3
I6
I300
tp82
(dp83
g4
F0.80048780487804871
sg5
F0.55999999999999994
sg6
F0.68583433373349334
sg7
F0.6120518580532962
ss(F0.0001
I900
F0
I3
I6
I300
tp84
(dp85
g4
F0.78292682926829271
sg5
F0.53888888888888886
sg6
F0.77238835725677824
sg7
F0.60312725888575069
ss(F0.0001
I900
F0
I5
I8
I300
tp86
(dp87
g4
F0.90292682926829249
sg5
F0.81222222222222218
sg6
F0.96857961053837338
sg7
F0.86145180231953911
ss(F0.0001
I1200
F0
I2
I10
I300
tp88
(dp89
g4
F0.94926829268292667
sg5
F0.9177777777777778
sg6
F0.9669920697858172
sg7
F0.9406421307058862
ss(F0.0001
I900
F0
I3
I8
I300
tp90
(dp91
g4
F0.84975609756097548
sg5
F0.7122222222222222
sg6
F0.85248403770142889
sg7
F0.73568100442150486
ss(F0.0001
I300
F0
I2
I2
I300
tp92
(dp93
g4
F0.60146341463414632
sg5
F0.31444444444444447
sg6
F0.31815478415302401
sg7
F0.27557974318054235
ss(F0.0001
I600
F0
I3
I10
I300
tp94
(dp95
g4
F0.90585365853658517
sg5
F0.81666666666666665
sg6
F0.97065215166612695
sg7
F0.84256783892020182
ss(F0.0001
I100
F0
I4
I6
I300
tp96
(dp97
g4
F0.58048780487804885
sg5
F0.41555555555555557
sg6
F0.40769866637609042
sg7
F0.34881710696446605
ss(F0.0001
I900
F0
I4
I2
I300
tp98
(dp99
g4
F0.64487804878048793
sg5
F0.21888888888888886
sg6
F0.26153846153846155
sg7
F0.23791601039131058
ss(F0.0001
I300
F0
I4
I2
I300
tp100
(dp101
g4
F0.52780487804878051
sg5
F0.052222222222222225
sg6
F0.029012345679012348
sg7
F0.037301587301587294
ss(F0.0001
I600
F0
I4
I2
I300
tp102
(dp103
g4
F0.52243902439024392
sg5
F0.0022222222222222222
sg6
F0.0024096385542168677
sg7
F0.0023121387283236996
ss(F0.0001
I100
F0
I4
I8
I300
tp104
(dp105
g4
F0.58780487804878057
sg5
F0.3988888888888889
sg6
F0.32128686894046576
sg7
F0.33549433953640567
ss(F0.0001
I100
F0
I4
I10
I300
tp106
(dp107
g4
F0.65317073170731721
sg5
F0.39222222222222225
sg6
F0.39890243902439032
sg7
F0.3667060338061921
ss(F0.0001
I1200
F0
I3
I8
I300
tp108
(dp109
g4
F0.89560975609756088
sg5
F0.77111111111111119
sg6
F0.89116604488453444
sg7
F0.82422383075254035
ss(F0.0001
I100
F0
I5
I6
I300
tp110
(dp111
g4
F0.50585365853658537
sg5
F0.22444444444444445
sg6
F0.20364646220719634
sg7
F0.15128782500665544
ss(F0.0001
I1200
F0
I4
I10
I300
tp112
(dp113
g4
F0.95658536585365839
sg5
F0.92333333333333323
sg6
F0.97922280570142517
sg7
F0.94887821390642468
ss(F0.0001
I900
F0
I2
I10
I300
tp114
(dp115
g4
F0.89073170731707296
sg5
F0.85777777777777786
sg6
F0.93337668429131837
sg7
F0.87859709328097257
ss(F0.0001
I1200
F0
I3
I2
I300
tp116
(dp117
g4
F0.62341463414634157
sg5
F0.24333333333333332
sg6
F0.24568467211480965
sg7
F0.23098260893582154
ss(F0.0001
I100
F0
I3
I2
I300
tp118
(dp119
g4
F0.55560975609756103
sg5
F0.20333333333333331
sg6
F0.32287895212285456
sg7
F0.19675437485898678
ss(F0.0001
I600
F0
I5
I2
I300
tp120
(dp121
g4
F0.59902439024390242
sg5
F0.08666666666666667
sg6
F0.10000000000000001
sg7
F0.09285714285714286
ss(F0.0001
I300
F0
I5
I8
I300
tp122
(dp123
g4
F0.73317073170731706
sg5
F0.55111111111111111
sg6
F0.60488826232247295
sg7
F0.54337592561482695
ss(F0.0001
I900
F0
I2
I8
I300
tp124
(dp125
g4
F0.86780487804878037
sg5
F0.88111111111111107
sg6
F0.89511154076710142
sg7
F0.86971587298713249
ss(F0.0001
I300
F0
I3
I8
I300
tp126
(dp127
g4
F0.68292682926829262
sg5
F0.48333333333333334
sg6
F0.68709051281775424
sg7
F0.46535555332659762
ss(F0.0001
I100
F0
I3
I4
I300
tp128
(dp129
g4
F0.50585365853658537
sg5
F0.14666666666666667
sg6
F0.19355541762473727
sg7
F0.11971412870939638
ss(F0.0001
I600
F0
I5
I8
I300
tp130
(dp131
g4
F0.89756097560975601
sg5
F0.7844444444444445
sg6
F0.88132694482899687
sg7
F0.82823224737483458
ss(F0.0001
I300
F0
I5
I6
I300
tp132
(dp133
g4
F0.68292682926829285
sg5
F0.34555555555555556
sg6
F0.4193092369477911
sg7
F0.3783459278622569
ss(F0.0001
I900
F0
I4
I6
I300
tp134
(dp135
g4
F0.8824390243902438
sg5
F0.76777777777777778
sg6
F0.86635531876758509
sg7
F0.8019033138113888
ss(F0.0001
I100
F0
I5
I10
I300
tp136
(dp137
g4
F0.58000000000000007
sg5
F0.2877777777777778
sg6
F0.33767510998684225
sg7
F0.25728959514521199
ss(F0.0001
I100
F0
I2
I2
I300
tp138
(dp139
g4
F0.57951219512195129
sg5
F0.2877777777777778
sg6
F0.28479216333516721
sg7
F0.21759077762292259
ss(F0.0001
I900
F0
I3
I2
I300
tp140
(dp141
g4
F0.61121951219512194
sg5
F0.25666666666666665
sg6
F0.31360711534818991
sg7
F0.25253552910297528
ss(F0.0001
I1200
F0
I4
I6
I300
tp142
(dp143
g4
F0.84390243902439011
sg5
F0.72888888888888881
sg6
F0.72832559009929043
sg7
F0.72367281459885291
ss(F0.0001
I300
F0
I3
I2
I300
tp144
(dp145
g4
F0.61024390243902438
sg5
F0.11333333333333334
sg6
F0.20000000000000001
sg7
F0.14091465904450795
ss(F0.0001
I600
F0
I3
I4
I300
tp146
(dp147
g4
F0.60829268292682936
sg5
F0.36777777777777776
sg6
F0.36496498885406337
sg7
F0.32412271403512521
ss(F0.0001
I900
F0
I3
I4
I300
tp148
(dp149
g4
F0.75365853658536586
sg5
F0.50111111111111106
sg6
F0.65020862607036667
sg7
F0.52545306329282548
ss(F0.0001
I1200
F0
I4
I8
I300
tp150
(dp151
g4
F0.91170731707317065
sg5
F0.82111111111111112
sg6
F0.87748962597353009
sg7
F0.84736494572908982
ss(F0.0001
I900
F0
I5
I10
I300
tp152
(dp153
g4
F0.93951219512195105
sg5
F0.89000000000000012
sg6
F0.97391469447238244
sg7
F0.92632697728477265
ss(F0.0001
I300
F0
I3
I10
I300
tp154
(dp155
g4
F0.7039024390243902
sg5
F0.4588888888888889
sg6
F0.73822062084257201
sg7
F0.50276448710976551
ss(F0.0001
I1200
F0
I5
I4
I300
tp156
(dp157
g4
F0.71219512195121959
sg5
F0.3611111111111111
sg6
F0.38237752081985232
sg7
F0.3712567211073326
ss(F0.0001
I1200
F0
I2
I8
I300
tp158
(dp159
g4
F0.9229268292682925
sg5
F0.87444444444444447
sg6
F0.95519013759228022
sg7
F0.90730590819034551
ss(F0.0001
I300
F0
I4
I4
I300
tp160
(dp161
g4
F0.67463414634146346
sg5
F0.3322222222222222
sg6
F0.33091374099046733
sg7
F0.3301978021978022
ss(F0.0001
I900
F0
I4
I4
I300
tp162
(dp163
g4
F0.74585365853658536
sg5
F0.46333333333333332
sg6
F0.56577653731577526
sg7
F0.49489731325963193
ss(F0.0001
I300
F0
I2
I4
I300
tp164
(dp165
g4
F0.62390243902439035
sg5
F0.44111111111111112
sg6
F0.40791671126956497
sg7
F0.38728821711554307
ss(F0.0001
I600
F0
I3
I8
I300
tp166
(dp167
g4
F0.79073170731707298
sg5
F0.76222222222222213
sg6
F0.75778906738864715
sg7
F0.72808522369262152
ss(F0.0001
I1200
F0
I2
I6
I300
tp168
(dp169
g4
F0.80682926829268287
sg5
F0.64222222222222225
sg6
F0.63456007967911687
sg7
F0.63309787497136316
ss(F0.0001
I300
F0
I4
I6
I300
tp170
(dp171
g4
F0.66097560975609759
sg5
F0.5
sg6
F0.56001166215994846
sg7
F0.45759760123688031
ss(F0.0001
I300
F0
I2
I10
I300
tp172
(dp173
g4
F0.63560975609756087
sg5
F0.5377777777777778
sg6
F0.52492705375678195
sg7
F0.45266482865356172
ss(F0.0001
I900
F0
I5
I6
I300
tp174
(dp175
g4
F0.91024390243902431
sg5
F0.8388888888888888
sg6
F0.85848549330517943
sg7
F0.84746512175128086
ss(F0.0001
I1200
F0
I2
I4
I300
tp176
(dp177
g4
F0.79658536585365847
sg5
F0.58222222222222231
sg6
F0.65772382904652893
sg7
F0.61178656734964698
ss(F0.0001
I600
F0
I4
I8
I300
tp178
(dp179
g4
F0.78341463414634149
sg5
F0.51000000000000001
sg6
F0.69486842105263158
sg7
F0.57821429036611982
ss(F0.0001
I300
F0
I2
I8
I300
tp180
(dp181
g4
F0.74878048780487794
sg5
F0.7366666666666668
sg6
F0.71662392012906784
sg7
F0.66608301462099784
ss(F0.0001
I600
F0
I4
I10
I300
tp182
(dp183
g4
F0.91804878048780469
sg5
F0.84555555555555562
sg6
F0.96871642611031228
sg7
F0.89519831446237119
ss(F0.0001
I1200
F0
I3
I6
I300
tp184
(dp185
g4
F0.86634146341463403
sg5
F0.77777777777777779
sg6
F0.82796068751008678
sg7
F0.79107794246146335
ss(F0.0001
I900
F0
I4
I8
I300
tp186
(dp187
g4
F0.93463414634146325
sg5
F0.90999999999999992
sg6
F0.94722940104927789
sg7
F0.92453186440606872
ss(F0.0001
I600
F0
I2
I10
I300
tp188
(dp189
g4
F0.82878048780487801
sg5
F0.70666666666666678
sg6
F0.81493941216205079
sg7
F0.72987167521538243
ss(F0.0001
I600
F0
I5
I4
I300
tp190
(dp191
g4
F0.76634146341463416
sg5
F0.48777777777777775
sg6
F0.58065909388932602
sg7
F0.52526659630192019
ss(F0.0001
I300
F0
I5
I10
I300
tp192
(dp193
g4
F0.85512195121951207
sg5
F0.76888888888888896
sg6
F0.81910094391619137
sg7
F0.77918396610909912
ss(F0.0001
I100
F0
I2
I6
I300
tp194
(dp195
g4
F0.44146341463414634
sg5
F0.34111111111111114
sg6
F0.31582278484958204
sg7
F0.26177729857340315
ss(F0.0001
I900
F0
I2
I2
I300
tp196
(dp197
g4
F0.6707317073170731
sg5
F0.41999999999999998
sg6
F0.47483439348040823
sg7
F0.40415781681742102
ss(F0.0001
I600
F0
I2
I8
I300
tp198
(dp199
g4
F0.66000000000000003
sg5
F0.48333333333333339
sg6
F0.5854359405663021
sg7
F0.44005109259181807
ss(F0.0001
I100
F0
I4
I4
I300
tp200
(dp201
g4
F0.54731707317073175
sg5
F0.19666666666666666
sg6
F0.13292336385001668
sg7
F0.15368974280733277
ss(F0.0001
I100
F0
I3
I10
I300
tp202
(dp203
g4
F0.59756097560975607
sg5
F0.67888888888888888
sg6
F0.61459123340482513
sg7
F0.52906223476265091
ss(F0.0001
I600
F0
I5
I10
I300
tp204
(dp205
g4
F0.88536585365853648
sg5
F0.75777777777777766
sg6
F0.88170787228743197
sg7
F0.80272637023976501
ss.