(dp1
(F0.01
I600
F0.10000000000000001
I7
I15
I300
tp2
(dp3
S'acc'
p4
F0.99999999999999989
sS'rec'
p5
F0.99999999999999989
sS'prec'
p6
F0.99999999999999989
sS'f1'
p7
F0.99999999999999989
ss(F0.01
I100
F0.29999999999999999
I10
I3
I300
tp8
(dp9
g4
F0.66780487804878053
sg5
F0.28666666666666668
sg6
F0.26184904996481351
sg7
F0.27298918496249192
ss(F0.01
I300
F0.75
I2
I5
I300
tp10
(dp11
g4
F0.94146341463414618
sg5
F0.93111111111111111
sg6
F0.9391277074660459
sg7
F0.9324263900302775
ss(F0.01
I200
F0.29999999999999999
I3
I15
I300
tp12
(dp13
g4
F0.99999999999999989
sg5
F0.99999999999999989
sg6
F0.99999999999999989
sg7
F0.99999999999999989
ss(F0.01
I600
F0.90000000000000002
I10
I5
I300
tp14
(dp15
g4
F0.8034146341463414
sg5
F0.63222222222222213
sg6
F0.71763323582028393
sg7
F0.66570988413244758
ss(F0.01
I600
F0.29999999999999999
I5
I15
I300
tp16
(dp17
g4
F0.99999999999999989
sg5
F0.99999999999999989
sg6
F0.99999999999999989
sg7
F0.99999999999999989
ss(F0.01
I100
F0.5
I2
I7
I300
tp18
(dp19
g4
F0.98780487804878037
sg5
F0.98888888888888871
sg6
F0.98359825425129488
sg7
F0.98618089248003349
ss(F0.01
I200
F0.10000000000000001
I3
I7
I300
tp20
(dp21
g4
F0.99804878048780477
sg5
F0.99777777777777765
sg6
F0.9978021978021977
sg7
F0.99777143211869135
ss(F0.01
I50
F0.10000000000000001
I2
I5
I300
tp22
(dp23
g4
F0.96195121951219498
sg5
F0.96444444444444444
sg6
F0.95239076481286022
sg7
F0.95693188890218739
ss(F0.01
I600
F0.10000000000000001
I5
I3
I300
tp24
(dp25
g4
F0.89121951219512185
sg5
F0.81444444444444442
sg6
F0.8475779506268839
sg7
F0.8213368011708807
ss(F0.01
I600
F0.90000000000000002
I5
I10
I300
tp26
(dp27
g4
F0.94682926829268277
sg5
F0.96333333333333349
sg6
F0.92079765951881221
sg7
F0.94101872784738438
ss(F0.01
I300
F0.75
I5
I7
I300
tp28
(dp29
g4
F0.97902439024390231
sg5
F0.97222222222222221
sg6
F0.9802957747542228
sg7
F0.97599175987872588
ss(F0.01
I100
F0.10000000000000001
I2
I7
I300
tp30
(dp31
g4
F0.99658536585365842
sg5
F0.99666666666666659
sg6
F0.99562828475871945
sg7
F0.99611387180191313
ss(F0.01
I100
F0.29999999999999999
I10
I15
I300
tp32
(dp33
g4
F0.99560975609756086
sg5
F0.99888888888888883
sg6
F0.99132746636252933
sg7
F0.9950517081341802
ss(F0.01
I200
F0.90000000000000002
I7
I5
I300
tp34
(dp35
g4
F0.75658536585365843
sg5
F0.64888888888888885
sg6
F0.69518667256622046
sg7
F0.65991523197687263
ss(F0.01
I50
F0.10000000000000001
I3
I7
I300
tp36
(dp37
g4
F0.98975609756097549
sg5
F0.98888888888888871
sg6
F0.98838790075903471
sg7
F0.98832573660580114
ss(F0.01
I200
F0.5
I3
I3
I300
tp38
(dp39
g4
F0.92926829268292666
sg5
F0.90777777777777768
sg6
F0.94528228021978022
sg7
F0.91831059633777101
ss(F0.01
I100
F0.29999999999999999
I2
I3
I300
tp40
(dp41
g4
F0.90975609756097542
sg5
F0.83777777777777784
sg6
F0.96060965837868706
sg7
F0.88305487856699472
ss(F0.01
I50
F0.90000000000000002
I5
I7
I300
tp42
(dp43
g4
F0.64487804878048782
sg5
F0.40333333333333332
sg6
F0.52761297288759779
sg7
F0.43617778184820477
ss(F0.01
I600
F0.5
I7
I15
I300
tp44
(dp45
g4
F0.99999999999999989
sg5
F0.99999999999999989
sg6
F0.99999999999999989
sg7
F0.99999999999999989
ss(F0.01
I100
F0.5
I2
I10
I300
tp46
(dp47
g4
F0.99951219512195111
sg5
F0.99999999999999989
sg6
F0.99890109890109879
sg7
F0.99944751381215458
ss(F0.01
I600
F0.75
I5
I10
I300
tp48
(dp49
g4
F0.99951219512195111
sg5
F0.99999999999999989
sg6
F0.99890109890109879
sg7
F0.99944751381215458
ss(F0.01
I50
F0.5
I10
I7
I300
tp50
(dp51
g4
F0.88536585365853637
sg5
F0.92333333333333334
sg6
F0.85072708190406787
sg7
F0.8741397948020645
ss(F0.01
I100
F0.29999999999999999
I5
I5
I300
tp52
(dp53
g4
F0.9717073170731706
sg5
F0.94999999999999996
sg6
F0.98627745924212895
sg7
F0.96665624412704443
ss(F0.01
I300
F0.29999999999999999
I2
I15
I300
tp54
(dp55
g4
F0.99999999999999989
sg5
F0.99999999999999989
sg6
F0.99999999999999989
sg7
F0.99999999999999989
ss(F0.01
I200
F0.10000000000000001
I7
I15
I300
tp56
(dp57
g4
F0.99999999999999989
sg5
F0.99999999999999989
sg6
F0.99999999999999989
sg7
F0.99999999999999989
ss(F0.01
I200
F0.29999999999999999
I7
I15
I300
tp58
(dp59
g4
F0.99999999999999989
sg5
F0.99999999999999989
sg6
F0.99999999999999989
sg7
F0.99999999999999989
ss(F0.01
I600
F0.10000000000000001
I3
I15
I300
tp60
(dp61
g4
F0.99999999999999989
sg5
F0.99999999999999989
sg6
F0.99999999999999989
sg7
F0.99999999999999989
ss(F0.01
I50
F0.75
I2
I5
I300
tp62
(dp63
g4
F0.76731707317073161
sg5
F0.6166666666666667
sg6
F0.82730343797845751
sg7
F0.6945144504225077
ss(F0.01
I50
F0.10000000000000001
I5
I10
I300
tp64
(dp65
g4
F0.98926829268292671
sg5
F0.98666666666666669
sg6
F0.98930102344363802
sg7
F0.98769453848936495
ss(F0.01
I600
F0.90000000000000002
I10
I10
I300
tp66
(dp67
g4
F0.93756097560975593
sg5
F0.95333333333333337
sg6
F0.91041814717799086
sg7
F0.9306731469538938
ss(F0.01
I600
F0.75
I2
I10
I300
tp68
(dp69
g4
F0.99804878048780477
sg5
F0.99888888888888872
sg6
F0.99672718585762055
sg7
F0.99778995349537636
ss(F0.01
I300
F0.29999999999999999
I10
I5
I300
tp70
(dp71
g4
F0.9717073170731706
sg5
F0.97333333333333327
sg6
F0.96438386295780321
sg7
F0.96779379502513774
ss(F0.01
I300
F0.90000000000000002
I3
I15
I300
tp72
(dp73
g4
F0.89512195121951199
sg5
F0.84555555555555539
sg6
F0.91016219808434773
sg7
F0.87572856675313804
ss(F0.01
I600
F0.29999999999999999
I7
I3
I300
tp74
(dp75
g4
F0.85804878048780486
sg5
F0.71666666666666656
sg6
F0.76182401084657758
sg7
F0.73327193886295017
ss(F0.01
I200
F0.29999999999999999
I3
I10
I300
tp76
(dp77
g4
F0.99999999999999989
sg5
F0.99999999999999989
sg6
F0.99999999999999989
sg7
F0.99999999999999989
ss(F0.01
I100
F0.29999999999999999
I3
I15
I300
tp78
(dp79
g4
F0.99999999999999989
sg5
F0.99999999999999989
sg6
F0.99999999999999989
sg7
F0.99999999999999989
ss(F0.01
I600
F0.10000000000000001
I2
I7
I300
tp80
(dp81
g4
F0.99999999999999989
sg5
F0.99999999999999989
sg6
F0.99999999999999989
sg7
F0.99999999999999989
ss(F0.01
I200
F0.29999999999999999
I2
I5
I300
tp82
(dp83
g4
F0.99073170731707305
sg5
F0.98333333333333328
sg6
F0.99562828475871945
sg7
F0.98923624253674236
ss(F0.01
I100
F0.5
I2
I15
I300
tp84
(dp85
g4
F0.99999999999999989
sg5
F0.99999999999999989
sg6
F0.99999999999999989
sg7
F0.99999999999999989
ss(F0.01
I50
F0.75
I2
I7
I300
tp86
(dp87
g4
F0.81024390243902422
sg5
F0.69222222222222207
sg6
F0.86107310257293668
sg7
F0.76040747292269228
ss(F0.01
I600
F0.10000000000000001
I5
I5
I300
tp88
(dp89
g4
F0.98926829268292671
sg5
F0.99444444444444435
sg6
F0.98196017701013283
sg7
F0.98791697963565384
ss(F0.01
I100
F0.90000000000000002
I10
I3
I300
tp90
(dp91
g4
F0.60926829268292682
sg5
F0.19999999999999998
sg6
F0.20868976897689767
sg7
F0.20146633599706071
ss(F0.01
I200
F0.5
I7
I15
I300
tp92
(dp93
g4
F0.99999999999999989
sg5
F0.99999999999999989
sg6
F0.99999999999999989
sg7
F0.99999999999999989
ss(F0.01
I600
F0.5
I2
I7
I300
tp94
(dp95
g4
F0.99658536585365842
sg5
F0.99333333333333329
sg6
F0.99890109890109879
sg7
F0.9959992379500856
ss(F0.01
I300
F0.5
I5
I15
I300
tp96
(dp97
g4
F0.99999999999999989
sg5
F0.99999999999999989
sg6
F0.99999999999999989
sg7
F0.99999999999999989
ss(F0.01
I200
F0.75
I3
I7
I300
tp98
(dp99
g4
F0.95756097560975595
sg5
F0.94999999999999996
sg6
F0.95431884916201959
sg7
F0.95143825616597977
ss(F0.01
I600
F0.5
I10
I7
I300
tp100
(dp101
g4
F0.99756097560975598
sg5
F0.99999999999999989
sg6
F0.99452938365981836
sg7
F0.99724364033756285
ss(F0.01
I50
F0.5
I5
I10
I300
tp102
(dp103
g4
F0.97121951219512181
sg5
F0.98222222222222211
sg6
F0.95448902199760111
sg7
F0.9678587936178813
ss(F0.01
I300
F0.90000000000000002
I3
I3
I300
tp104
(dp105
g4
F0.75951219512195112
sg5
F0.65666666666666662
sg6
F0.79656088833654004
sg7
F0.69505205606205944
ss(F0.01
I50
F0.90000000000000002
I10
I3
I300
tp106
(dp107
g4
F0.57268292682926836
sg5
F0.066666666666666666
sg6
F0.0625
sg7
F0.064516129032258063
ss(F0.01
I300
F0.5
I2
I7
I300
tp108
(dp109
g4
F0.99756097560975598
sg5
F0.99444444444444435
sg6
F0.99999999999999989
sg7
F0.99714285714285711
ss(F0.01
I100
F0.29999999999999999
I5
I10
I300
tp110
(dp111
g4
F0.99658536585365842
sg5
F0.99222222222222223
sg6
F0.99999999999999989
sg7
F0.99599306492005391
ss(F0.01
I100
F0.75
I2
I3
I300
tp112
(dp113
g4
F0.80195121951219495
sg5
F0.69777777777777772
sg6
F0.85185002355520112
sg7
F0.7331047751131391
ss(F0.01
I300
F0.10000000000000001
I3
I15
I300
tp114
(dp115
g4
F0.99999999999999989
sg5
F0.99999999999999989
sg6
F0.99999999999999989
sg7
F0.99999999999999989
ss(F0.01
I100
F0.90000000000000002
I3
I5
I300
tp116
(dp117
g4
F0.67170731707317077
sg5
F0.46888888888888886
sg6
F0.74088393832024835
sg7
F0.50587267204336905
ss(F0.01
I200
F0.10000000000000001
I10
I10
I300
tp118
(dp119
g4
F0.98926829268292671
sg5
F0.98888888888888882
sg6
F0.98758141554494128
sg7
F0.98784976467278929
ss(F0.01
I100
F0.90000000000000002
I10
I15
I300
tp120
(dp121
g4
F0.79170731707317066
sg5
F0.8222222222222223
sg6
F0.73505271787228543
sg7
F0.77544982620001512
ss(F0.01
I100
F0.5
I7
I15
I300
tp122
(dp123
g4
F0.99902439024390233
sg5
F0.99999999999999989
sg6
F0.9978021978021977
sg7
F0.99889502762430926
ss(F0.01
I600
F0.29999999999999999
I5
I5
I300
tp124
(dp125
g4
F0.98341463414634134
sg5
F0.97111111111111104
sg6
F0.99137296560978327
sg7
F0.98032440060508208
ss(F0.01
I100
F0.90000000000000002
I3
I3
I300
tp126
(dp127
g4
F0.66829268292682931
sg5
F0.54222222222222227
sg6
F0.63264310005372604
sg7
F0.53288547306011946
ss(F0.01
I300
F0.75
I3
I3
I300
tp128
(dp129
g4
F0.85512195121951196
sg5
F0.85888888888888892
sg6
F0.84401455547431259
sg7
F0.835242452302147
ss(F0.01
I600
F0.75
I5
I15
I300
tp130
(dp131
g4
F0.99999999999999989
sg5
F0.99999999999999989
sg6
F0.99999999999999989
sg7
F0.99999999999999989
ss(F0.01
I50
F0.75
I5
I10
I300
tp132
(dp133
g4
F0.83170731707317047
sg5
F0.77555555555555544
sg6
F0.83537912524207059
sg7
F0.79888920547086784
ss(F0.01
I200
F0.75
I3
I5
I300
tp134
(dp135
g4
F0.93414634146341446
sg5
F0.93000000000000005
sg6
F0.92357825105744484
sg7
F0.92473332626906901
ss(F0.01
I50
F0.75
I2
I3
I300
tp136
(dp137
g4
F0.74926829268292672
sg5
F0.61888888888888893
sg6
F0.78699323864343906
sg7
F0.67603805682719831
ss(F0.01
I300
F0.90000000000000002
I7
I5
I300
tp138
(dp139
g4
F0.76292682926829258
sg5
F0.62888888888888883
sg6
F0.63745961751014946
sg7
F0.62628792026448987
ss(F0.01
I300
F0.90000000000000002
I5
I5
I300
tp140
(dp141
g4
F0.80975609756097544
sg5
F0.73222222222222233
sg6
F0.83365364807605891
sg7
F0.76331273982222925
ss(F0.01
I200
F0.90000000000000002
I7
I7
I300
tp142
(dp143
g4
F0.82731707317073155
sg5
F0.83333333333333326
sg6
F0.78989515806965471
sg7
F0.80643835926902885
ss(F0.01
I200
F0.75
I5
I10
I300
tp144
(dp145
g4
F0.98585365853658524
sg5
F0.98333333333333317
sg6
F0.98461716617303263
sg7
F0.98380755855274993
ss(F0.01
I300
F0.10000000000000001
I3
I10
I300
tp146
(dp147
g4
F0.99951219512195111
sg5
F0.99888888888888883
sg6
F0.99999999999999989
sg7
F0.99944134078212288
ss(F0.01
I600
F0.5
I3
I10
I300
tp148
(dp149
g4
F0.99999999999999989
sg5
F0.99999999999999989
sg6
F0.99999999999999989
sg7
F0.99999999999999989
ss(F0.01
I600
F0.29999999999999999
I3
I15
I300
tp150
(dp151
g4
F0.99999999999999989
sg5
F0.99999999999999989
sg6
F0.99999999999999989
sg7
F0.99999999999999989
ss(F0.01
I300
F0.5
I5
I7
I300
tp152
(dp153
g4
F0.99414634146341452
sg5
F0.99999999999999989
sg6
F0.98744113029827307
sg7
F0.99353473609968246
ss(F0.01
I100
F0.5
I3
I3
I300
tp154
(dp155
g4
F0.89073170731707296
sg5
F0.84333333333333327
sg6
F0.91769310355567735
sg7
F0.86920001138631964
ss(F0.01
I200
F0.10000000000000001
I7
I5
I300
tp156
(dp157
g4
F0.98195121951219499
sg5
F0.99888888888888883
sg6
F0.96275643121180876
sg7
F0.98017150363762739
ss(F0.01
I200
F0.29999999999999999
I2
I15
I300
tp158
(dp159
g4
F0.99999999999999989
sg5
F0.99999999999999989
sg6
F0.99999999999999989
sg7
F0.99999999999999989
ss(F0.01
I100
F0.75
I3
I5
I300
tp160
(dp161
g4
F0.86097560975609733
sg5
F0.87555555555555553
sg6
F0.82337938319009507
sg7
F0.84611589665235643
ss(F0.01
I100
F0.75
I7
I7
I300
tp162
(dp163
g4
F0.8975609756097559
sg5
F0.86555555555555552
sg6
F0.90226406306237972
sg7
F0.87925580936244108
ss(F0.01
I200
F0.75
I10
I7
I300
tp164
(dp165
g4
F0.87365853658536585
sg5
F0.7566666666666666
sg6
F0.75854186292134929
sg7
F0.75519194084660834
ss(F0.01
I600
F0.29999999999999999
I7
I15
I300
tp166
(dp167
g4
F0.99999999999999989
sg5
F0.99999999999999989
sg6
F0.99999999999999989
sg7
F0.99999999999999989
ss(F0.01
I200
F0.75
I10
I3
I300
tp168
(dp169
g4
F0.61463414634146363
sg5
F0.16444444444444445
sg6
F0.16267806267806267
sg7
F0.16248196248196248
ss(F0.01
I600
F0.10000000000000001
I10
I15
I300
tp170
(dp171
g4
F0.99999999999999989
sg5
F0.99999999999999989
sg6
F0.99999999999999989
sg7
F0.99999999999999989
ss(F0.01
I300
F0.90000000000000002
I2
I3
I300
tp172
(dp173
g4
F0.77560975609756078
sg5
F0.6855555555555557
sg6
F0.80808707962242288
sg7
F0.71199283926894064
ss(F0.01
I100
F0.10000000000000001
I3
I3
I300
tp174
(dp175
g4
F0.86585365853658525
sg5
F0.75555555555555565
sg6
F0.84523508254685209
sg7
F0.78691765891968202
ss(F0.01
I100
F0.75
I7
I5
I300
tp176
(dp177
g4
F0.83999999999999975
sg5
F0.80555555555555547
sg6
F0.8437637765197048
sg7
F0.81180088125173888
ss(F0.01
I600
F0.75
I7
I3
I300
tp178
(dp179
g4
F0.8136585365853658
sg5
F0.63555555555555554
sg6
F0.64160712296269506
sg7
F0.6377139337291059
ss(F0.01
I50
F0.5
I10
I15
I300
tp180
(dp181
g4
F0.96341463414634132
sg5
F0.98333333333333328
sg6
F0.93843415847401124
sg7
F0.95951981974749867
ss(F0.01
I100
F0.10000000000000001
I5
I7
I300
tp182
(dp183
g4
F0.98731707317073159
sg5
F0.99999999999999989
sg6
F0.97443322173435898
sg7
F0.98645232869417054
ss(F0.01
I600
F0.90000000000000002
I5
I7
I300
tp184
(dp185
g4
F0.90487804878048761
sg5
F0.8833333333333333
sg6
F0.90120395701269185
sg7
F0.88973002721322936
ss(F0.01
I300
F0.5
I2
I10
I300
tp186
(dp187
g4
F0.99951219512195111
sg5
F0.99888888888888872
sg6
F0.99999999999999989
sg7
F0.99944134078212277
ss(F0.01
I100
F0.5
I3
I15
I300
tp188
(dp189
g4
F0.99951219512195111
sg5
F0.99888888888888883
sg6
F0.99999999999999989
sg7
F0.99944134078212277
ss(F0.01
I600
F0.10000000000000001
I2
I15
I300
tp190
(dp191
g4
F0.99999999999999989
sg5
F0.99999999999999989
sg6
F0.99999999999999989
sg7
F0.99999999999999989
ss(F0.01
I300
F0.75
I3
I5
I300
tp192
(dp193
g4
F0.94243902439024374
sg5
F0.92222222222222228
sg6
F0.9477491956698435
sg7
F0.93250850907035832
ss(F0.01
I100
F0.75
I7
I10
I300
tp194
(dp195
g4
F0.92487804878048763
sg5
F0.93666666666666665
sg6
F0.90028802308998301
sg7
F0.91653485552440495
ss(F0.01
I300
F0.75
I10
I15
I300
tp196
(dp197
g4
F0.99902439024390233
sg5
F0.99999999999999989
sg6
F0.9978021978021977
sg7
F0.99889502762430926
ss(F0.01
I50
F0.90000000000000002
I2
I7
I300
tp198
(dp199
g4
F0.64292682926829281
sg5
F0.42111111111111116
sg6
F0.70743447063592946
sg7
F0.47598649348946287
ss(F0.01
I600
F0.29999999999999999
I10
I3
I300
tp200
(dp201
g4
F0.85317073170731705
sg5
F0.68666666666666665
sg6
F0.68010285782449642
sg7
F0.6829041439152983
ss(F0.01
I50
F0.10000000000000001
I5
I5
I300
tp202
(dp203
g4
F0.95073170731707302
sg5
F0.9277777777777777
sg6
F0.96331221066473094
sg7
F0.94252518248756323
ss(F0.01
I100
F0.10000000000000001
I10
I5
I300
tp204
(dp205
g4
F0.95170731707317058
sg5
F0.97777777777777775
sg6
F0.92310375255611365
sg7
F0.94747627984092686
ss(F0.01
I600
F0.5
I10
I5
I300
tp206
(dp207
g4
F0.93658536585365837
sg5
F0.89111111111111108
sg6
F0.86716346302798042
sg7
F0.87831256898289289
ss(F0.01
I600
F0.5
I7
I5
I300
tp208
(dp209
g4
F0.98926829268292671
sg5
F0.98111111111111104
sg6
F0.99457639135058484
sg7
F0.98738762347483389
ss(F0.01
I300
F0.29999999999999999
I5
I15
I300
tp210
(dp211
g4
F0.99999999999999989
sg5
F0.99999999999999989
sg6
F0.99999999999999989
sg7
F0.99999999999999989
ss(F0.01
I300
F0.5
I2
I5
I300
tp212
(dp213
g4
F0.98536585365853646
sg5
F0.97555555555555562
sg6
F0.99132746636252944
sg7
F0.98266237500401221
ss(F0.01
I600
F0.75
I7
I5
I300
tp214
(dp215
g4
F0.92097560975609749
sg5
F0.88222222222222224
sg6
F0.84398374390613473
sg7
F0.86143171595287393
ss(F0.01
I100
F0.10000000000000001
I10
I3
I300
tp216
(dp217
g4
F0.67219512195121955
sg5
F0.2911111111111111
sg6
F0.26557142857142857
sg7
F0.27774916013437845
ss(F0.01
I50
F0.5
I5
I7
I300
tp218
(dp219
g4
F0.92975609756097544
sg5
F0.91000000000000003
sg6
F0.93118737643491911
sg7
F0.91745131660471169
ss(F0.01
I200
F0.29999999999999999
I7
I10
I300
tp220
(dp221
g4
F0.99902439024390233
sg5
F0.99999999999999989
sg6
F0.99782608695652164
sg7
F0.99890109890109879
ss(F0.01
I200
F0.75
I3
I3
I300
tp222
(dp223
g4
F0.84829268292682913
sg5
F0.79666666666666663
sg6
F0.87784632829857523
sg7
F0.81949479755133003
ss(F0.01
I50
F0.5
I2
I5
I300
tp224
(dp225
g4
F0.89512195121951199
sg5
F0.85111111111111126
sg6
F0.91058456056714987
sg7
F0.87553092057993576
ss(F0.01
I100
F0.10000000000000001
I2
I15
I300
tp226
(dp227
g4
F0.99999999999999989
sg5
F0.99999999999999989
sg6
F0.99999999999999989
sg7
F0.99999999999999989
ss(F0.01
I100
F0.29999999999999999
I10
I7
I300
tp228
(dp229
g4
F0.96731707317073157
sg5
F0.9622222222222222
sg6
F0.96559421583261096
sg7
F0.96153708960672835
ss(F0.01
I300
F0.90000000000000002
I3
I10
I300
tp230
(dp231
g4
F0.86243902439024367
sg5
F0.7744444444444446
sg6
F0.89978490701825375
sg7
F0.83098562956079103
ss(F0.01
I200
F0.29999999999999999
I10
I15
I300
tp232
(dp233
g4
F0.99951219512195111
sg5
F0.99999999999999989
sg6
F0.99890109890109879
sg7
F0.99944751381215458
ss(F0.01
I200
F0.5
I10
I7
I300
tp234
(dp235
g4
F0.9868292682926828
sg5
F0.99111111111111105
sg6
F0.9808800201827067
sg7
F0.9854214590442415
ss(F0.01
I200
F0.75
I10
I15
I300
tp236
(dp237
g4
F0.99268292682926818
sg5
F0.99666666666666659
sg6
F0.98688355278818096
sg7
F0.99172461528950961
ss(F0.01
I600
F0.29999999999999999
I5
I3
I300
tp238
(dp239
g4
F0.8951219512195121
sg5
F0.83777777777777773
sg6
F0.83111350795353012
sg7
F0.83104311773301909
ss(F0.01
I50
F0.90000000000000002
I5
I15
I300
tp240
(dp241
g4
F0.67414634146341457
sg5
F0.43000000000000005
sg6
F0.62701256284370899
sg7
F0.48836496025531123
ss(F0.01
I50
F0.5
I2
I3
I300
tp242
(dp243
g4
F0.84487804878048756
sg5
F0.79222222222222227
sg6
F0.86065488444454941
sg7
F0.81079736749064713
ss(F0.01
I600
F0.75
I7
I15
I300
tp244
(dp245
g4
F0.99999999999999989
sg5
F0.99999999999999989
sg6
F0.99999999999999989
sg7
F0.99999999999999989
ss(F0.01
I600
F0.75
I5
I7
I300
tp246
(dp247
g4
F0.99609756097560964
sg5
F0.99555555555555542
sg6
F0.99560439560439551
sg7
F0.9955428642373827
ss(F0.01
I200
F0.10000000000000001
I3
I3
I300
tp248
(dp249
g4
F0.93853658536585349
sg5
F0.94000000000000006
sg6
F0.93131817868847933
sg7
F0.93114882591626691
ss(F0.01
I300
F0.75
I5
I5
I300
tp250
(dp251
g4
F0.94731707317073155
sg5
F0.93666666666666665
sg6
F0.94604725841924564
sg7
F0.93817814931139099
ss(F0.01
I50
F0.75
I10
I15
I300
tp252
(dp253
g4
F0.87853658536585344
sg5
F0.92555555555555546
sg6
F0.82570507592507503
sg7
F0.87088786231473636
ss(F0.01
I100
F0.75
I3
I15
I300
tp254
(dp255
g4
F0.98243902439024378
sg5
F0.97888888888888892
sg6
F0.98120824244419735
sg7
F0.97999285858967866
ss(F0.01
I300
F0.29999999999999999
I2
I7
I300
tp256
(dp257
g4
F0.99902439024390233
sg5
F0.99777777777777765
sg6
F0.99999999999999989
sg7
F0.99888268156424564
ss(F0.01
I200
F0.29999999999999999
I7
I7
I300
tp258
(dp259
g4
F0.98634146341463402
sg5
F0.98333333333333328
sg6
F0.98657357679914059
sg7
F0.98434457258309693
ss(F0.01
I600
F0.10000000000000001
I3
I7
I300
tp260
(dp261
g4
F0.99804878048780477
sg5
F0.99999999999999989
sg6
F0.99562828475871945
sg7
F0.99779612652540817
ss(F0.01
I50
F0.75
I5
I7
I300
tp262
(dp263
g4
F0.80780487804878032
sg5
F0.76777777777777767
sg6
F0.79661903325757988
sg7
F0.77330511681384384
ss(F0.01
I200
F0.29999999999999999
I5
I5
I300
tp264
(dp265
g4
F0.9843902439024389
sg5
F0.97444444444444434
sg6
F0.99045329670329663
sg7
F0.98172041220650597
ss(F0.01
I600
F0.5
I5
I7
I300
tp266
(dp267
g4
F0.99999999999999989
sg5
F0.99999999999999989
sg6
F0.99999999999999989
sg7
F0.99999999999999989
ss(F0.01
I50
F0.75
I7
I5
I300
tp268
(dp269
g4
F0.7424390243902439
sg5
F0.58888888888888891
sg6
F0.63003455429987187
sg7
F0.59234985567428022
ss(F0.01
I200
F0.10000000000000001
I2
I10
I300
tp270
(dp271
g4
F0.99999999999999989
sg5
F0.99999999999999989
sg6
F0.99999999999999989
sg7
F0.99999999999999989
ss(F0.01
I50
F0.5
I10
I5
I300
tp272
(dp273
g4
F0.84390243902439011
sg5
F0.81888888888888889
sg6
F0.76446169372538819
sg7
F0.77848437610112586
ss(F0.01
I200
F0.75
I10
I5
I300
tp274
(dp275
g4
F0.90048780487804858
sg5
F0.86888888888888882
sg6
F0.81237987258208222
sg7
F0.83916093073065212
ss(F0.01
I300
F0.10000000000000001
I10
I3
I300
tp276
(dp277
g4
F0.79560975609756102
sg5
F0.62666666666666659
sg6
F0.61506504428547093
sg7
F0.61883665009200517
ss(F0.01
I50
F0.75
I5
I5
I300
tp278
(dp279
g4
F0.76097560975609746
sg5
F0.62555555555555553
sg6
F0.7991207120587468
sg7
F0.68887153234629228
ss(F0.01
I50
F0.75
I10
I5
I300
tp280
(dp281
g4
F0.67707317073170747
sg5
F0.43000000000000005
sg6
F0.36064457678022455
sg7
F0.39218543379075355
ss(F0.01
I100
F0.10000000000000001
I5
I3
I300
tp282
(dp283
g4
F0.88390243902439014
sg5
F0.77777777777777779
sg6
F0.86459330143540658
sg7
F0.80889381649237146
ss(F0.01
I50
F0.90000000000000002
I7
I7
I300
tp284
(dp285
g4
F0.65609756097560978
sg5
F0.53777777777777769
sg6
F0.48807343199575709
sg7
F0.49033567587206128
ss(F0.01
I50
F0.5
I10
I3
I300
tp286
(dp287
g4
F0.58536585365853666
sg5
F0.073333333333333334
sg6
F0.080487804878048783
sg7
F0.076744186046511634
ss(F0.01
I50
F0.75
I5
I3
I300
tp288
(dp289
g4
F0.74634146341463403
sg5
F0.71888888888888902
sg6
F0.7409076372306902
sg7
F0.70952626379578865
ss(F0.01
I200
F0.10000000000000001
I7
I3
I300
tp290
(dp291
g4
F0.84243902439024387
sg5
F0.7566666666666666
sg6
F0.70783946638772777
sg7
F0.72449800235203121
ss(F0.01
I300
F0.90000000000000002
I2
I5
I300
tp292
(dp293
g4
F0.81999999999999984
sg5
F0.73666666666666669
sg6
F0.84973906389729037
sg7
F0.77826007586316837
ss(F0.01
I200
F0.75
I2
I3
I300
tp294
(dp295
g4
F0.86292682926829245
sg5
F0.8155555555555557
sg6
F0.88375027978633558
sg7
F0.83610818739523329
ss(F0.01
I300
F0.29999999999999999
I10
I7
I300
tp296
(dp297
g4
F0.98585365853658524
sg5
F0.99999999999999989
sg6
F0.97013376660933037
sg7
F0.98450178074699801
ss(F0.01
I600
F0.5
I2
I15
I300
tp298
(dp299
g4
F0.99999999999999989
sg5
F0.99999999999999989
sg6
F0.99999999999999989
sg7
F0.99999999999999989
ss(F0.01
I100
F0.29999999999999999
I2
I10
I300
tp300
(dp301
g4
F0.99999999999999989
sg5
F0.99999999999999989
sg6
F0.99999999999999989
sg7
F0.99999999999999989
ss(F0.01
I300
F0.10000000000000001
I7
I10
I300
tp302
(dp303
g4
F0.9970731707317072
sg5
F0.99777777777777765
sg6
F0.99565217391304339
sg7
F0.99667860229657979
ss(F0.01
I200
F0.75
I2
I5
I300
tp304
(dp305
g4
F0.92780487804878031
sg5
F0.87333333333333341
sg6
F0.96041520498409438
sg7
F0.9123926890405003
ss(F0.01
I50
F0.75
I10
I7
I300
tp306
(dp307
g4
F0.78975609756097542
sg5
F0.7466666666666667
sg6
F0.69473819901466138
sg7
F0.71659115298331932
ss(F0.01
I600
F0.75
I5
I3
I300
tp308
(dp309
g4
F0.86926829268292671
sg5
F0.77999999999999992
sg6
F0.82972013780573006
sg7
F0.79585417522032609
ss(F0.01
I300
F0.75
I3
I7
I300
tp310
(dp311
g4
F0.97609756097560962
sg5
F0.97333333333333338
sg6
F0.97299281051634257
sg7
F0.97270941492642249
ss(F0.01
I600
F0.90000000000000002
I5
I5
I300
tp312
(dp313
g4
F0.81853658536585361
sg5
F0.71777777777777774
sg6
F0.76505978462197355
sg7
F0.73605424149676169
ss(F0.01
I100
F0.90000000000000002
I10
I5
I300
tp314
(dp315
g4
F0.68048780487804872
sg5
F0.46555555555555556
sg6
F0.50806191566038261
sg7
F0.47310191951495223
ss(F0.01
I200
F0.5
I7
I5
I300
tp316
(dp317
g4
F0.97951219512195109
sg5
F0.99222222222222212
sg6
F0.96521376834504091
sg7
F0.97775609275326802
ss(F0.01
I50
F0.5
I5
I5
I300
tp318
(dp319
g4
F0.87414634146341452
sg5
F0.86777777777777776
sg6
F0.86883682491964787
sg7
F0.85511638852658933
ss(F0.01
I50
F0.29999999999999999
I2
I5
I300
tp320
(dp321
g4
F0.93609756097560959
sg5
F0.92888888888888876
sg6
F0.93095394020895261
sg7
F0.92585624367065189
ss(F0.01
I50
F0.10000000000000001
I5
I3
I300
tp322
(dp323
g4
F0.83999999999999997
sg5
F0.79333333333333345
sg6
F0.78020741543021177
sg7
F0.77143610647832306
ss(F0.01
I100
F0.90000000000000002
I10
I7
I300
tp324
(dp325
g4
F0.70780487804878045
sg5
F0.57999999999999996
sg6
F0.56493231848339909
sg7
F0.56384193295161666
ss(F0.01
I100
F0.75
I3
I3
I300
tp326
(dp327
g4
F0.76829268292682917
sg5
F0.70222222222222219
sg6
F0.71716473821367643
sg7
F0.68652301652315595
ss(F0.01
I100
F0.75
I2
I5
I300
tp328
(dp329
g4
F0.86780487804878026
sg5
F0.81222222222222218
sg6
F0.88739366299201849
sg7
F0.8424939964879159
ss(F0.01
I300
F0.29999999999999999
I3
I7
I300
tp330
(dp331
g4
F0.99902439024390233
sg5
F0.99999999999999989
sg6
F0.9978021978021977
sg7
F0.99889502762430926
ss(F0.01
I300
F0.5
I2
I3
I300
tp332
(dp333
g4
F0.95170731707317058
sg5
F0.92111111111111099
sg6
F0.97038456317315447
sg7
F0.94074830263882137
ss(F0.01
I300
F0.5
I5
I10
I300
tp334
(dp335
g4
F0.99951219512195111
sg5
F0.99999999999999989
sg6
F0.99890109890109879
sg7
F0.99944751381215458
ss(F0.01
I50
F0.75
I3
I7
I300
tp336
(dp337
g4
F0.79365853658536578
sg5
F0.7122222222222222
sg6
F0.80692374223816699
sg7
F0.74573633559630159
ss(F0.01
I200
F0.5
I2
I15
I300
tp338
(dp339
g4
F0.99999999999999989
sg5
F0.99999999999999989
sg6
F0.99999999999999989
sg7
F0.99999999999999989
ss(F0.01
I100
F0.90000000000000002
I2
I10
I300
tp340
(dp341
g4
F0.75560975609756087
sg5
F0.62777777777777777
sg6
F0.78751532323114293
sg7
F0.68110331796771117
ss(F0.01
I300
F0.10000000000000001
I3
I3
I300
tp342
(dp343
g4
F0.93902439024390227
sg5
F0.94666666666666666
sg6
F0.93460933347932329
sg7
F0.93438377270969175
ss(F0.01
I50
F0.10000000000000001
I5
I15
I300
tp344
(dp345
g4
F0.99902439024390233
sg5
F0.99777777777777776
sg6
F0.99999999999999989
sg7
F0.99888268156424576
ss(F0.01
I100
F0.29999999999999999
I10
I5
I300
tp346
(dp347
g4
F0.93121951219512178
sg5
F0.93777777777777771
sg6
F0.91548271511204138
sg7
F0.92125853124328483
ss(F0.01
I50
F0.29999999999999999
I3
I5
I300
tp348
(dp349
g4
F0.93999999999999984
sg5
F0.9211111111111111
sg6
F0.94492153910714449
sg7
F0.92946293272479052
ss(F0.01
I100
F0.90000000000000002
I5
I3
I300
tp350
(dp351
g4
F0.66731707317073163
sg5
F0.42222222222222217
sg6
F0.42146585996231395
sg7
F0.42060067227137804
ss(F0.01
I200
F0.5
I10
I15
I300
tp352
(dp353
g4
F0.99658536585365842
sg5
F0.99999999999999989
sg6
F0.99278350515463909
sg7
F0.99625668449197857
ss(F0.01
I600
F0.90000000000000002
I10
I7
I300
tp354
(dp355
g4
F0.88048780487804867
sg5
F0.82666666666666655
sg6
F0.80582384038156352
sg7
F0.81447012066949931
ss(F0.01
I300
F0.29999999999999999
I10
I3
I300
tp356
(dp357
g4
F0.68682926829268287
sg5
F0.30666666666666664
sg6
F0.37342606558292829
sg7
F0.33599032930888856
ss(F0.01
I50
F0.75
I10
I3
I300
tp358
(dp359
g4
F0.5741463414634147
sg5
F0.094444444444444442
sg6
F0.05944055944055944
sg7
F0.072961373390557943
ss(F0.01
I100
F0.90000000000000002
I3
I15
I300
tp360
(dp361
g4
F0.77317073170731698
sg5
F0.63777777777777767
sg6
F0.81742114095497564
sg7
F0.70819145001688488
ss(F0.01
I50
F0.5
I3
I5
I300
tp362
(dp363
g4
F0.86439024390243879
sg5
F0.80111111111111111
sg6
F0.89279891402606359
sg7
F0.83280613596306929
ss(F0.01
I50
F0.29999999999999999
I3
I7
I300
tp364
(dp365
g4
F0.97073170731707303
sg5
F0.97222222222222221
sg6
F0.96457152134610658
sg7
F0.96697041134706019
ss(F0.01
I50
F0.5
I2
I10
I300
tp366
(dp367
g4
F0.97560975609756084
sg5
F0.9655555555555555
sg6
F0.97882249200360982
sg7
F0.97207082642810794
ss(F0.01
I100
F0.90000000000000002
I7
I15
I300
tp368
(dp369
g4
F0.81317073170731691
sg5
F0.77999999999999992
sg6
F0.80430938281428321
sg7
F0.78532007326943609
ss(F0.01
I200
F0.29999999999999999
I5
I3
I300
tp370
(dp371
g4
F0.90926829268292675
sg5
F0.84999999999999998
sg6
F0.85070698906414588
sg7
F0.84589594017030478
ss(F0.01
I300
F0.90000000000000002
I2
I10
I300
tp372
(dp373
g4
F0.87414634146341441
sg5
F0.79888888888888887
sg6
F0.90429534227771791
sg7
F0.84743833420792258
ss(F0.01
I50
F0.90000000000000002
I10
I10
I300
tp374
(dp375
g4
F0.65902439024390247
sg5
F0.46222222222222226
sg6
F0.46680497818540778
sg7
F0.44938976030959144
ss(F0.01
I600
F0.29999999999999999
I5
I10
I300
tp376
(dp377
g4
F0.99999999999999989
sg5
F0.99999999999999989
sg6
F0.99999999999999989
sg7
F0.99999999999999989
ss(F0.01
I600
F0.5
I10
I10
I300
tp378
(dp379
g4
F0.99853658536585355
sg5
F0.99999999999999989
sg6
F0.99672718585762055
sg7
F0.99834861271325348
ss(F0.01
I100
F0.29999999999999999
I7
I15
I300
tp380
(dp381
g4
F0.99951219512195111
sg5
F0.99999999999999989
sg6
F0.99890109890109879
sg7
F0.99944751381215458
ss(F0.01
I100
F0.10000000000000001
I5
I5
I300
tp382
(dp383
g4
F0.97317073170731694
sg5
F0.96111111111111114
sg6
F0.9786943786264668
sg7
F0.96839037391381
ss(F0.01
I300
F0.29999999999999999
I5
I10
I300
tp384
(dp385
g4
F0.99999999999999989
sg5
F0.99999999999999989
sg6
F0.99999999999999989
sg7
F0.99999999999999989
ss(F0.01
I200
F0.5
I7
I10
I300
tp386
(dp387
g4
F0.99902439024390233
sg5
F0.99777777777777765
sg6
F0.99999999999999989
sg7
F0.99887640449438186
ss(F0.01
I50
F0.5
I7
I3
I300
tp388
(dp389
g4
F0.71317073170731715
sg5
F0.50777777777777777
sg6
F0.57780856982524686
sg7
F0.52059421898598357
ss(F0.01
I100
F0.29999999999999999
I5
I7
I300
tp390
(dp391
g4
F0.99365853658536574
sg5
F0.99333333333333329
sg6
F0.9922824670308793
sg7
F0.99277433114393676
ss(F0.01
I50
F0.10000000000000001
I10
I10
I300
tp392
(dp393
g4
F0.94536585365853643
sg5
F0.91555555555555546
sg6
F0.96348410124784978
sg7
F0.93154599494950663
ss(F0.01
I50
F0.10000000000000001
I7
I5
I300
tp394
(dp395
g4
F0.88731707317073161
sg5
F0.78666666666666674
sg6
F0.85857093526874273
sg7
F0.81399362958868071
ss(F0.01
I300
F0.10000000000000001
I10
I10
I300
tp396
(dp397
g4
F0.99951219512195111
sg5
F0.99999999999999989
sg6
F0.99890109890109879
sg7
F0.99944751381215458
ss(F0.01
I100
F0.5
I3
I7
I300
tp398
(dp399
g4
F0.98146341463414621
sg5
F0.96666666666666667
sg6
F0.99120798595639814
sg7
F0.97776470886946898
ss(F0.01
I50
F0.5
I10
I10
I300
tp400
(dp401
g4
F0.93756097560975593
sg5
F0.96999999999999997
sg6
F0.89744406127009502
sg7
F0.93153731526478123
ss(F0.01
I600
F0.10000000000000001
I10
I3
I300
tp402
(dp403
g4
F0.71463414634146338
sg5
F0.40888888888888886
sg6
F0.44850793650793652
sg7
F0.41859922339556194
ss(F0.01
I600
F0.29999999999999999
I10
I5
I300
tp404
(dp405
g4
F0.94048780487804873
sg5
F0.88222222222222224
sg6
F0.88295338966501136
sg7
F0.88183139806237476
ss(F0.01
I300
F0.29999999999999999
I5
I7
I300
tp406
(dp407
g4
F0.99804878048780477
sg5
F0.99777777777777765
sg6
F0.9978021978021977
sg7
F0.99777770918855513
ss(F0.01
I200
F0.10000000000000001
I7
I10
I300
tp408
(dp409
g4
F0.9970731707317072
sg5
F0.99888888888888883
sg6
F0.99457639135058473
sg7
F0.99669702414413719
ss(F0.01
I300
F0.75
I7
I15
I300
tp410
(dp411
g4
F0.99999999999999989
sg5
F0.99999999999999989
sg6
F0.99999999999999989
sg7
F0.99999999999999989
ss(F0.01
I200
F0.29999999999999999
I10
I7
I300
tp412
(dp413
g4
F0.98926829268292671
sg5
F0.98444444444444446
sg6
F0.99157608695652166
sg7
F0.98768156204196245
ss(F0.01
I200
F0.5
I10
I10
I300
tp414
(dp415
g4
F0.99512195121951208
sg5
F0.99999999999999989
sg6
F0.98913043478260865
sg7
F0.99450549450549441
ss(F0.01
I100
F0.5
I10
I10
I300
tp416
(dp417
g4
F0.97707317073170719
sg5
F0.99888888888888883
sg6
F0.95453480377162148
sg7
F0.97539284696447959
ss(F0.01
I600
F0.75
I2
I7
I300
tp418
(dp419
g4
F0.99073170731707305
sg5
F0.98555555555555552
sg6
F0.99334270380781997
sg7
F0.9893463357982597
ss(F0.01
I200
F0.75
I5
I15
I300
tp420
(dp421
g4
F0.99804878048780477
sg5
F0.99888888888888883
sg6
F0.9967032967032966
sg7
F0.99778388221858694
ss(F0.01
I600
F0.75
I2
I15
I300
tp422
(dp423
g4
F0.99999999999999989
sg5
F0.99999999999999989
sg6
F0.99999999999999989
sg7
F0.99999999999999989
ss(F0.01
I50
F0.90000000000000002
I2
I10
I300
tp424
(dp425
g4
F0.69560975609756093
sg5
F0.51999999999999991
sg6
F0.71769295748097761
sg7
F0.58994661251573888
ss(F0.01
I600
F0.29999999999999999
I3
I5
I300
tp426
(dp427
g4
F0.9970731707317072
sg5
F0.99666666666666648
sg6
F0.99677419354838703
sg7
F0.99667840101420979
ss(F0.01
I200
F0.10000000000000001
I5
I3
I300
tp428
(dp429
g4
F0.90146341463414625
sg5
F0.87222222222222223
sg6
F0.92384706155031349
sg7
F0.88581882566779058
ss(F0.01
I600
F0.5
I2
I10
I300
tp430
(dp431
g4
F0.99999999999999989
sg5
F0.99999999999999989
sg6
F0.99999999999999989
sg7
F0.99999999999999989
ss(F0.01
I200
F0.75
I2
I7
I300
tp432
(dp433
g4
F0.95560975609756083
sg5
F0.94222222222222218
sg6
F0.95779871568845354
sg7
F0.94849245292609752
ss(F0.01
I200
F0.10000000000000001
I2
I15
I300
tp434
(dp435
g4
F0.99999999999999989
sg5
F0.99999999999999989
sg6
F0.99999999999999989
sg7
F0.99999999999999989
ss(F0.01
I200
F0.5
I3
I7
I300
tp436
(dp437
g4
F0.9946341463414633
sg5
F0.99444444444444435
sg6
F0.99341827254870729
sg7
F0.9938789547543373
ss(F0.01
I300
F0.75
I10
I7
I300
tp438
(dp439
g4
F0.98585365853658524
sg5
F0.99111111111111105
sg6
F0.97755825832470444
sg7
F0.98409464605768449
ss(F0.01
I600
F0.5
I5
I15
I300
tp440
(dp441
g4
F0.99999999999999989
sg5
F0.99999999999999989
sg6
F0.99999999999999989
sg7
F0.99999999999999989
ss(F0.01
I200
F0.10000000000000001
I10
I3
I300
tp442
(dp443
g4
F0.84926829268292681
sg5
F0.7122222222222222
sg6
F0.7478740906637561
sg7
F0.72586740407619732
ss(F0.01
I200
F0.75
I5
I5
I300
tp444
(dp445
g4
F0.92487804878048763
sg5
F0.89555555555555544
sg6
F0.93315600398440357
sg7
F0.9099015417383598
ss(F0.01
I50
F0.75
I2
I15
I300
tp446
(dp447
g4
F0.9024390243902437
sg5
F0.86555555555555552
sg6
F0.90971883824533417
sg7
F0.88592014748245806
ss(F0.01
I600
F0.75
I3
I5
I300
tp448
(dp449
g4
F0.97365853658536572
sg5
F0.97666666666666668
sg6
F0.96481338597852584
sg7
F0.97017163099080628
ss(F0.01
I100
F0.10000000000000001
I5
I10
I300
tp450
(dp451
g4
F0.99902439024390233
sg5
F0.99777777777777776
sg6
F0.99999999999999989
sg7
F0.99888268156424576
ss(F0.01
I50
F0.90000000000000002
I7
I15
I300
tp452
(dp453
g4
F0.67756097560975603
sg5
F0.52777777777777779
sg6
F0.60332308952195479
sg7
F0.54592561147490282
ss(F0.01
I300
F0.5
I5
I5
I300
tp454
(dp455
g4
F0.99268292682926818
sg5
F0.98666666666666658
sg6
F0.99677419354838703
sg7
F0.99156140661508885
ss(F0.01
I200
F0.5
I2
I5
I300
tp456
(dp457
g4
F0.99121951219512183
sg5
F0.98999999999999999
sg6
F0.99041213455474897
sg7
F0.99003338161518728
ss(F0.01
I50
F0.10000000000000001
I7
I3
I300
tp458
(dp459
g4
F0.80975609756097555
sg5
F0.66444444444444439
sg6
F0.71677729564253545
sg7
F0.67511409077725326
ss(F0.01
I300
F0.29999999999999999
I7
I3
I300
tp460
(dp461
g4
F0.80390243902439029
sg5
F0.64222222222222214
sg6
F0.62838116413481138
sg7
F0.62917595114695102
ss(F0.01
I600
F0.90000000000000002
I7
I15
I300
tp462
(dp463
g4
F0.9639024390243901
sg5
F0.96222222222222209
sg6
F0.9569116942467738
sg7
F0.95904878126194693
ss(F0.01
I300
F0.29999999999999999
I10
I15
I300
tp464
(dp465
g4
F0.99951219512195111
sg5
F0.99999999999999989
sg6
F0.99890109890109879
sg7
F0.99944751381215458
ss(F0.01
I600
F0.5
I5
I3
I300
tp466
(dp467
g4
F0.89073170731707307
sg5
F0.75666666666666649
sg6
F0.79460028050490883
sg7
F0.77448540508088137
ss(F0.01
I600
F0.29999999999999999
I2
I7
I300
tp468
(dp469
g4
F0.99999999999999989
sg5
F0.99999999999999989
sg6
F0.99999999999999989
sg7
F0.99999999999999989
ss(F0.01
I300
F0.75
I7
I7
I300
tp470
(dp471
g4
F0.98975609756097549
sg5
F0.99333333333333329
sg6
F0.98421479297656411
sg7
F0.98853063879553105
ss(F0.01
I600
F0.90000000000000002
I3
I10
I300
tp472
(dp473
g4
F0.93365853658536568
sg5
F0.92555555555555558
sg6
F0.92438899461207436
sg7
F0.92429512152899773
ss(F0.01
I200
F0.5
I7
I3
I300
tp474
(dp475
g4
F0.82634146341463399
sg5
F0.75888888888888884
sg6
F0.76507340198122498
sg7
F0.74745948417774211
ss(F0.01
I600
F0.75
I2
I3
I300
tp476
(dp477
g4
F0.92585365853658519
sg5
F0.89555555555555566
sg6
F0.93721011536364784
sg7
F0.91296365215444086
ss(F0.01
I100
F0.10000000000000001
I5
I15
I300
tp478
(dp479
g4
F0.99999999999999989
sg5
F0.99999999999999989
sg6
F0.99999999999999989
sg7
F0.99999999999999989
ss(F0.01
I300
F0.75
I7
I5
I300
tp480
(dp481
g4
F0.93219512195121934
sg5
F0.94333333333333336
sg6
F0.91225694994679429
sg7
F0.92428490918740824
ss(F0.01
I50
F0.29999999999999999
I7
I15
I300
tp482
(dp483
g4
F0.99512195121951208
sg5
F0.99777777777777765
sg6
F0.9913035772082055
sg7
F0.99448070056964988
ss(F0.01
I600
F0.90000000000000002
I7
I3
I300
tp484
(dp485
g4
F0.65121951219512197
sg5
F0.31444444444444447
sg6
F0.29871041169083562
sg7
F0.30604708323406976
ss(F0.01
I200
F0.5
I2
I7
I300
tp486
(dp487
g4
F0.9970731707317072
sg5
F0.99666666666666659
sg6
F0.99677419354838703
sg7
F0.99667840101420979
ss(F0.01
I300
F0.75
I10
I3
I300
tp488
(dp489
g4
F0.64048780487804891
sg5
F0.27888888888888885
sg6
F0.22889092389092389
sg7
F0.2496011277803255
ss(F0.01
I50
F0.29999999999999999
I10
I15
I300
tp490
(dp491
g4
F0.98048780487804865
sg5
F0.98111111111111104
sg6
F0.9760055005984879
sg7
F0.97795172234940853
ss(F0.01
I200
F0.29999999999999999
I5
I10
I300
tp492
(dp493
g4
F0.99902439024390233
sg5
F0.99888888888888883
sg6
F0.99890109890109879
sg7
F0.99888885459427756
ss(F0.01
I200
F0.29999999999999999
I10
I10
I300
tp494
(dp495
g4
F0.99512195121951208
sg5
F0.99888888888888883
sg6
F0.99052419354838706
sg7
F0.99457619006821485
ss(F0.01
I200
F0.75
I7
I3
I300
tp496
(dp497
g4
F0.81317073170731691
sg5
F0.67777777777777781
sg6
F0.70681052832741664
sg7
F0.68327725508183479
ss(F0.01
I600
F0.5
I2
I3
I300
tp498
(dp499
g4
F0.96048780487804863
sg5
F0.96000000000000008
sg6
F0.96316048018511047
sg7
F0.95815500596728465
ss(F0.01
I50
F0.29999999999999999
I2
I3
I300
tp500
(dp501
g4
F0.88048780487804856
sg5
F0.81222222222222218
sg6
F0.91640230730132155
sg7
F0.84786409836007959
ss(F0.01
I200
F0.75
I7
I5
I300
tp502
(dp503
g4
F0.87804878048780477
sg5
F0.77888888888888896
sg6
F0.84406255571485644
sg7
F0.796521924605474
ss(F0.01
I300
F0.5
I10
I3
I300
tp504
(dp505
g4
F0.69804878048780494
sg5
F0.39666666666666661
sg6
F0.33634767443623848
sg7
F0.36221257804331997
ss(F0.01
I600
F0.5
I10
I3
I300
tp506
(dp507
g4
F0.73268292682926828
sg5
F0.47888888888888892
sg6
F0.42929071791036844
sg7
F0.45014109325520624
ss(F0.01
I600
F0.75
I10
I3
I300
tp508
(dp509
g4
F0.66439024390243906
sg5
F0.27111111111111108
sg6
F0.26512949039264827
sg7
F0.26804970716572923
ss(F0.01
I50
F0.90000000000000002
I3
I15
I300
tp510
(dp511
g4
F0.67756097560975626
sg5
F0.38555555555555554
sg6
F0.76669120637618748
sg7
F0.50568279904613789
ss(F0.01
I300
F0.10000000000000001
I5
I7
I300
tp512
(dp513
g4
F0.99658536585365842
sg5
F0.99777777777777776
sg6
F0.99452938365981836
sg7
F0.99612632190180872
ss(F0.01
I600
F0.5
I2
I5
I300
tp514
(dp515
g4
F0.99609756097560964
sg5
F0.99555555555555542
sg6
F0.99562828475871945
sg7
F0.99555521258403612
ss(F0.01
I300
F0.75
I2
I7
I300
tp516
(dp517
g4
F0.96926829268292669
sg5
F0.95666666666666667
sg6
F0.97289121219364327
sg7
F0.96433039991520697
ss(F0.01
I300
F0.29999999999999999
I2
I10
I300
tp518
(dp519
g4
F0.99999999999999989
sg5
F0.99999999999999989
sg6
F0.99999999999999989
sg7
F0.99999999999999989
ss(F0.01
I200
F0.10000000000000001
I2
I5
I300
tp520
(dp521
g4
F0.99219512195121939
sg5
F0.98777777777777764
sg6
F0.99452938365981836
sg7
F0.9909246702902692
ss(F0.01
I200
F0.5
I5
I3
I300
tp522
(dp523
g4
F0.86097560975609744
sg5
F0.72444444444444445
sg6
F0.86560829853244181
sg7
F0.77814138532421007
ss(F0.01
I50
F0.10000000000000001
I5
I7
I300
tp524
(dp525
g4
F0.98195121951219499
sg5
F0.97444444444444445
sg6
F0.9849310264203881
sg7
F0.97912923746243841
ss(F0.01
I300
F0.10000000000000001
I5
I5
I300
tp526
(dp527
g4
F0.98048780487804865
sg5
F0.96777777777777763
sg6
F0.98821510297482829
sg7
F0.97522993967144656
ss(F0.01
I200
F0.29999999999999999
I10
I5
I300
tp528
(dp529
g4
F0.91609756097560968
sg5
F0.89555555555555555
sg6
F0.8281186741810832
sg7
F0.85860517829338823
ss(F0.01
I600
F0.90000000000000002
I3
I5
I300
tp530
(dp531
g4
F0.8668292682926827
sg5
F0.83222222222222231
sg6
F0.86780926563287508
sg7
F0.84448257581727026
ss(F0.01
I200
F0.75
I7
I15
I300
tp532
(dp533
g4
F0.99756097560975598
sg5
F0.99888888888888883
sg6
F0.99562828475871945
sg7
F0.99723746730753116
ss(F0.01
I200
F0.5
I5
I7
I300
tp534
(dp535
g4
F0.99170731707317061
sg5
F0.98222222222222211
sg6
F0.99890109890109879
sg7
F0.99005108219718307
ss(F0.01
I300
F0.10000000000000001
I7
I3
I300
tp536
(dp537
g4
F0.83560975609756094
sg5
F0.66555555555555546
sg6
F0.75674640857724618
sg7
F0.7030486965861743
ss(F0.01
I300
F0.5
I3
I10
I300
tp538
(dp539
g4
F0.99999999999999989
sg5
F0.99999999999999989
sg6
F0.99999999999999989
sg7
F0.99999999999999989
ss(F0.01
I100
F0.90000000000000002
I3
I7
I300
tp540
(dp541
g4
F0.69073170731707312
sg5
F0.45555555555555555
sg6
F0.68314240026432849
sg7
F0.52110648492861333
ss(F0.01
I600
F0.90000000000000002
I7
I10
I300
tp542
(dp543
g4
F0.9409756097560974
sg5
F0.93222222222222229
sg6
F0.93527926881872359
sg7
F0.93216605610583836
ss(F0.01
I50
F0.29999999999999999
I3
I15
I300
tp544
(dp545
g4
F0.99951219512195111
sg5
F0.99999999999999989
sg6
F0.99890109890109879
sg7
F0.99944751381215458
ss(F0.01
I100
F0.90000000000000002
I5
I5
I300
tp546
(dp547
g4
F0.73073170731707315
sg5
F0.68000000000000005
sg6
F0.70935850674826462
sg7
F0.68217000609785727
ss(F0.01
I600
F0.10000000000000001
I5
I15
I300
tp548
(dp549
g4
F0.99999999999999989
sg5
F0.99999999999999989
sg6
F0.99999999999999989
sg7
F0.99999999999999989
ss(F0.01
I100
F0.90000000000000002
I7
I7
I300
tp550
(dp551
g4
F0.741951219512195
sg5
F0.68666666666666665
sg6
F0.71823231473321369
sg7
F0.69186650832148444
ss(F0.01
I50
F0.90000000000000002
I2
I3
I300
tp552
(dp553
g4
F0.61463414634146352
sg5
F0.21888888888888891
sg6
F0.66206869805742263
sg7
F0.28151316062152598
ss(F0.01
I600
F0.5
I5
I5
I300
tp554
(dp555
g4
F0.99804878048780477
sg5
F0.99999999999999989
sg6
F0.99567529244948594
sg7
F0.99780816954985951
ss(F0.01
I200
F0.10000000000000001
I10
I5
I300
tp556
(dp557
g4
F0.94292682926829252
sg5
F0.97777777777777775
sg6
F0.90881008632729976
sg7
F0.93889698449934356
ss(F0.01
I600
F0.5
I3
I15
I300
tp558
(dp559
g4
F0.99999999999999989
sg5
F0.99999999999999989
sg6
F0.99999999999999989
sg7
F0.99999999999999989
ss(F0.01
I300
F0.75
I5
I15
I300
tp560
(dp561
g4
F0.99951219512195111
sg5
F0.99999999999999989
sg6
F0.99890109890109879
sg7
F0.99944751381215458
ss(F0.01
I100
F0.75
I10
I3
I300
tp562
(dp563
g4
F0.7014634146341463
sg5
F0.4588888888888889
sg6
F0.48140806834980204
sg7
F0.45597267301807753
ss(F0.01
I600
F0.10000000000000001
I3
I5
I300
tp564
(dp565
g4
F0.99317073170731696
sg5
F0.99333333333333329
sg6
F0.99144013880855975
sg7
F0.9921915628716923
ss(F0.01
I300
F0.10000000000000001
I10
I5
I300
tp566
(dp567
g4
F0.95560975609756083
sg5
F0.92999999999999994
sg6
F0.96922714608220306
sg7
F0.94793888127635373
ss(F0.01
I600
F0.75
I2
I5
I300
tp568
(dp569
g4
F0.98341463414634134
sg5
F0.98333333333333328
sg6
F0.9795956760630673
sg7
F0.98112073098884733
ss(F0.01
I300
F0.29999999999999999
I10
I10
I300
tp570
(dp571
g4
F0.9970731707317072
sg5
F0.99999999999999989
sg6
F0.99354838709677418
sg7
F0.99672131147540977
ss(F0.01
I300
F0.75
I5
I3
I300
tp572
(dp573
g4
F0.8951219512195121
sg5
F0.88
sg6
F0.8876805834618765
sg7
F0.87417014011247007
ss(F0.01
I200
F0.90000000000000002
I3
I3
I300
tp574
(dp575
g4
F0.73951219512195121
sg5
F0.5066666666666666
sg6
F0.86655073901384017
sg7
F0.62113940718487837
ss(F0.01
I50
F0.90000000000000002
I10
I15
I300
tp576
(dp577
g4
F0.73512195121951207
sg5
F0.7666666666666665
sg6
F0.6772420292971415
sg7
F0.71821945045822244
ss(F0.01
I50
F0.29999999999999999
I3
I3
I300
tp578
(dp579
g4
F0.87073170731707306
sg5
F0.81888888888888878
sg6
F0.89949133139605186
sg7
F0.84255941465384676
ss(F0.01
I100
F0.29999999999999999
I5
I15
I300
tp580
(dp581
g4
F0.99902439024390233
sg5
F0.99999999999999989
sg6
F0.9978021978021977
sg7
F0.99889502762430926
ss(F0.01
I300
F0.29999999999999999
I7
I15
I300
tp582
(dp583
g4
F0.99999999999999989
sg5
F0.99999999999999989
sg6
F0.99999999999999989
sg7
F0.99999999999999989
ss(F0.01
I200
F0.29999999999999999
I5
I7
I300
tp584
(dp585
g4
F0.99756097560975598
sg5
F0.99999999999999989
sg6
F0.99452938365981836
sg7
F0.99724364033756285
ss(F0.01
I600
F0.29999999999999999
I3
I10
I300
tp586
(dp587
g4
F0.99999999999999989
sg5
F0.99999999999999989
sg6
F0.99999999999999989
sg7
F0.99999999999999989
ss(F0.01
I600
F0.90000000000000002
I2
I7
I300
tp588
(dp589
g4
F0.90341463414634127
sg5
F0.86444444444444457
sg6
F0.91274637302457517
sg7
F0.88640265736379331
ss(F0.01
I600
F0.29999999999999999
I2
I5
I300
tp590
(dp591
g4
F0.99512195121951208
sg5
F0.99555555555555542
sg6
F0.99354687865326152
sg7
F0.99447392356959508
ss(F0.01
I300
F0.5
I3
I15
I300
tp592
(dp593
g4
F0.99999999999999989
sg5
F0.99999999999999989
sg6
F0.99999999999999989
sg7
F0.99999999999999989
ss(F0.01
I200
F0.75
I5
I3
I300
tp594
(dp595
g4
F0.83024390243902424
sg5
F0.83999999999999986
sg6
F0.80040834525332938
sg7
F0.81151066095273017
ss(F0.01
I100
F0.75
I2
I15
I300
tp596
(dp597
g4
F0.98146341463414621
sg5
F0.96888888888888902
sg6
F0.98863218441531686
sg7
F0.97847956296110428
ss(F0.01
I200
F0.10000000000000001
I5
I15
I300
tp598
(dp599
g4
F0.99999999999999989
sg5
F0.99999999999999989
sg6
F0.99999999999999989
sg7
F0.99999999999999989
ss(F0.01
I100
F0.75
I5
I3
I300
tp600
(dp601
g4
F0.80585365853658519
sg5
F0.76444444444444448
sg6
F0.80559516744705362
sg7
F0.76903821635262237
ss(F0.01
I100
F0.10000000000000001
I7
I3
I300
tp602
(dp603
g4
F0.83999999999999997
sg5
F0.75
sg6
F0.80945931248983571
sg7
F0.75437610812923594
ss(F0.01
I200
F0.90000000000000002
I7
I10
I300
tp604
(dp605
g4
F0.84829268292682902
sg5
F0.80999999999999994
sg6
F0.84032770188098704
sg7
F0.82136579260189069
ss(F0.01
I600
F0.5
I5
I10
I300
tp606
(dp607
g4
F0.99999999999999989
sg5
F0.99999999999999989
sg6
F0.99999999999999989
sg7
F0.99999999999999989
ss(F0.01
I100
F0.75
I5
I10
I300
tp608
(dp609
g4
F0.93560975609756081
sg5
F0.92000000000000015
sg6
F0.93266622010599476
sg7
F0.92561720059689967
ss(F0.01
I600
F0.5
I3
I3
I300
tp610
(dp611
g4
F0.95902439024390229
sg5
F0.92666666666666664
sg6
F0.98077867423676468
sg7
F0.95088102102564331
ss(F0.01
I50
F0.90000000000000002
I7
I10
I300
tp612
(dp613
g4
F0.70487804878048776
sg5
F0.67222222222222228
sg6
F0.66955544169118197
sg7
F0.64579153067663941
ss(F0.01
I50
F0.10000000000000001
I3
I15
I300
tp614
(dp615
g4
F0.99999999999999989
sg5
F0.99999999999999989
sg6
F0.99999999999999989
sg7
F0.99999999999999989
ss(F0.01
I300
F0.90000000000000002
I2
I7
I300
tp616
(dp617
g4
F0.83073170731707302
sg5
F0.71444444444444444
sg6
F0.88889872434906336
sg7
F0.78744533022354146
ss(F0.01
I200
F0.90000000000000002
I3
I10
I300
tp618
(dp619
g4
F0.81365853658536569
sg5
F0.71444444444444433
sg6
F0.84463980273984107
sg7
F0.76848261332609458
ss(F0.01
I300
F0.29999999999999999
I5
I3
I300
tp620
(dp621
g4
F0.89609756097560966
sg5
F0.83666666666666667
sg6
F0.83838995492098467
sg7
F0.83113443118152164
ss(F0.01
I100
F0.5
I2
I5
I300
tp622
(dp623
g4
F0.95560975609756083
sg5
F0.96333333333333326
sg6
F0.94248250237397169
sg7
F0.95046268511790588
ss(F0.01
I50
F0.10000000000000001
I2
I10
I300
tp624
(dp625
g4
F0.99756097560975598
sg5
F0.99666666666666648
sg6
F0.99778998778998762
sg7
F0.99721280719542549
ss(F0.01
I200
F0.10000000000000001
I2
I7
I300
tp626
(dp627
g4
F0.99804878048780477
sg5
F0.99888888888888883
sg6
F0.9967032967032966
sg7
F0.99778388221858694
ss(F0.01
I200
F0.75
I3
I15
I300
tp628
(dp629
g4
F0.99268292682926818
sg5
F0.99333333333333329
sg6
F0.99026082664380533
sg7
F0.99172968111337467
ss(F0.01
I600
F0.10000000000000001
I2
I3
I300
tp630
(dp631
g4
F0.98097560975609743
sg5
F0.99444444444444435
sg6
F0.96482524071874676
sg7
F0.97896132007054537
ss(F0.01
I200
F0.29999999999999999
I10
I3
I300
tp632
(dp633
g4
F0.67902439024390238
sg5
F0.28111111111111109
sg6
F0.28910891089108914
sg7
F0.28424083769633512
ss(F0.01
I600
F0.29999999999999999
I3
I3
I300
tp634
(dp635
g4
F0.91609756097560957
sg5
F0.85999999999999988
sg6
F0.85961538461538456
sg7
F0.85645356194225319
ss(F0.01
I50
F0.5
I2
I7
I300
tp636
(dp637
g4
F0.94390243902439008
sg5
F0.92444444444444451
sg6
F0.94742142600565271
sg7
F0.93540608043153639
ss(F0.01
I50
F0.10000000000000001
I10
I7
I300
tp638
(dp639
g4
F0.94975609756097545
sg5
F0.99888888888888872
sg6
F0.90404953826826506
sg7
F0.94756336342731573
ss(F0.01
I100
F0.5
I2
I3
I300
tp640
(dp641
g4
F0.90878048780487786
sg5
F0.91444444444444439
sg6
F0.89032417219668758
sg7
F0.89693085935800643
ss(F0.01
I300
F0.29999999999999999
I2
I3
I300
tp642
(dp643
g4
F0.9536585365853657
sg5
F0.91777777777777769
sg6
F0.97897312771262335
sg7
F0.94341795966040887
ss(F0.01
I300
F0.75
I7
I10
I300
tp644
(dp645
g4
F0.9970731707317072
sg5
F0.99999999999999989
sg6
F0.99343048256091726
sg7
F0.99669115414971754
ss(F0.01
I200
F0.5
I5
I10
I300
tp646
(dp647
g4
F0.99951219512195111
sg5
F0.99999999999999989
sg6
F0.99890109890109879
sg7
F0.99944751381215458
ss(F0.01
I300
F0.5
I3
I3
I300
tp648
(dp649
g4
F0.97999999999999987
sg5
F0.99777777777777765
sg6
F0.95978499870100087
sg7
F0.97806646174018752
ss(F0.01
I300
F0.75
I2
I3
I300
tp650
(dp651
g4
F0.87560975609756087
sg5
F0.81111111111111112
sg6
F0.91456472209742679
sg7
F0.84838507935011853
ss(F0.01
I200
F0.10000000000000001
I10
I7
I300
tp652
(dp653
g4
F0.98634146341463402
sg5
F0.99777777777777765
sg6
F0.97253479577046931
sg7
F0.98479788745932784
ss(F0.01
I600
F0.5
I3
I7
I300
tp654
(dp655
g4
F0.99853658536585355
sg5
F0.99888888888888883
sg6
F0.9978021978021977
sg7
F0.99833636840643214
ss(F0.01
I600
F0.29999999999999999
I2
I15
I300
tp656
(dp657
g4
F0.99999999999999989
sg5
F0.99999999999999989
sg6
F0.99999999999999989
sg7
F0.99999999999999989
ss(F0.01
I300
F0.29999999999999999
I2
I5
I300
tp658
(dp659
g4
F0.99756097560975598
sg5
F0.99555555555555542
sg6
F0.99890109890109879
sg7
F0.99719393934004019
ss(F0.01
I300
F0.10000000000000001
I10
I7
I300
tp660
(dp661
g4
F0.99414634146341452
sg5
F0.99666666666666659
sg6
F0.99022856526362824
sg7
F0.99337562644071697
ss(F0.01
I600
F0.75
I10
I15
I300
tp662
(dp663
g4
F0.99999999999999989
sg5
F0.99999999999999989
sg6
F0.99999999999999989
sg7
F0.99999999999999989
ss(F0.01
I200
F0.90000000000000002
I3
I5
I300
tp664
(dp665
g4
F0.73365853658536573
sg5
F0.55111111111111111
sg6
F0.81562493649588608
sg7
F0.62443623682078186
ss(F0.01
I300
F0.75
I5
I10
I300
tp666
(dp667
g4
F0.99365853658536574
sg5
F0.99777777777777776
sg6
F0.98794765620852576
sg7
F0.99282368337616955
ss(F0.01
I600
F0.90000000000000002
I2
I5
I300
tp668
(dp669
g4
F0.87073170731707294
sg5
F0.79888888888888887
sg6
F0.90344729434419058
sg7
F0.84076989597497009
ss(F0.01
I50
F0.90000000000000002
I7
I3
I300
tp670
(dp671
g4
F0.57317073170731714
sg5
F0.078888888888888883
sg6
F0.060683760683760676
sg7
F0.068599033816425112
ss(F0.01
I300
F0.75
I3
I10
I300
tp672
(dp673
g4
F0.99658536585365842
sg5
F0.99777777777777776
sg6
F0.99456418133837488
sg7
F0.99613839922087133
ss(F0.01
I100
F0.10000000000000001
I7
I5
I300
tp674
(dp675
g4
F0.97219512195121938
sg5
F0.97666666666666668
sg6
F0.96382119629265184
sg7
F0.96901385692032016
ss(F0.01
I50
F0.29999999999999999
I7
I7
I300
tp676
(dp677
g4
F0.95219512195121936
sg5
F0.94222222222222207
sg6
F0.9541229205729127
sg7
F0.94435253010982045
ss(F0.01
I50
F0.10000000000000001
I7
I7
I300
tp678
(dp679
g4
F0.95804878048780473
sg5
F0.93333333333333324
sg6
F0.97276483104608658
sg7
F0.94849545342299957
ss(F0.01
I200
F0.75
I2
I15
I300
tp680
(dp681
g4
F0.99902439024390233
sg5
F0.99888888888888883
sg6
F0.99890109890109879
sg7
F0.99888885459427756
ss(F0.01
I50
F0.29999999999999999
I10
I7
I300
tp682
(dp683
g4
F0.95268292682926814
sg5
F0.96999999999999997
sg6
F0.92867925700744147
sg7
F0.9472453475091106
ss(F0.01
I600
F0.10000000000000001
I2
I10
I300
tp684
(dp685
g4
F0.99999999999999989
sg5
F0.99999999999999989
sg6
F0.99999999999999989
sg7
F0.99999999999999989
ss(F0.01
I600
F0.29999999999999999
I2
I3
I300
tp686
(dp687
g4
F0.97268292682926816
sg5
F0.94000000000000017
sg6
F0.99782608695652164
sg7
F0.96717561308310707
ss(F0.01
I50
F0.90000000000000002
I7
I5
I300
tp688
(dp689
g4
F0.63609756097560977
sg5
F0.33555555555555555
sg6
F0.41519257536153664
sg7
F0.35089345092097812
ss(F0.01
I600
F0.75
I5
I5
I300
tp690
(dp691
g4
F0.97512195121951206
sg5
F0.9655555555555555
sg6
F0.97815242277115477
sg7
F0.97117420004691046
ss(F0.01
I600
F0.75
I7
I10
I300
tp692
(dp693
g4
F0.99999999999999989
sg5
F0.99999999999999989
sg6
F0.99999999999999989
sg7
F0.99999999999999989
ss(F0.01
I100
F0.90000000000000002
I7
I10
I300
tp694
(dp695
g4
F0.77512195121951211
sg5
F0.79000000000000004
sg6
F0.72795831718788639
sg7
F0.75522989313906197
ss(F0.01
I300
F0.29999999999999999
I3
I15
I300
tp696
(dp697
g4
F0.99999999999999989
sg5
F0.99999999999999989
sg6
F0.99999999999999989
sg7
F0.99999999999999989
ss(F0.01
I50
F0.90000000000000002
I3
I7
I300
tp698
(dp699
g4
F0.61268292682926839
sg5
F0.16555555555555554
sg6
F0.70632437159478523
sg7
F0.24364105809234843
ss(F0.01
I50
F0.29999999999999999
I3
I10
I300
tp700
(dp701
g4
F0.99024390243902427
sg5
F0.98444444444444446
sg6
F0.99324650657983982
sg7
F0.9885702522404759
ss(F0.01
I600
F0.10000000000000001
I5
I10
I300
tp702
(dp703
g4
F0.99951219512195111
sg5
F0.99999999999999989
sg6
F0.99890109890109879
sg7
F0.99944751381215458
ss(F0.01
I300
F0.75
I10
I10
I300
tp704
(dp705
g4
F0.99268292682926818
sg5
F0.99666666666666659
sg6
F0.98697886965769144
sg7
F0.99173638393166419
ss(F0.01
I300
F0.75
I2
I15
I300
tp706
(dp707
g4
F0.99999999999999989
sg5
F0.99999999999999989
sg6
F0.99999999999999989
sg7
F0.99999999999999989
ss(F0.01
I300
F0.10000000000000001
I2
I15
I300
tp708
(dp709
g4
F0.99999999999999989
sg5
F0.99999999999999989
sg6
F0.99999999999999989
sg7
F0.99999999999999989
ss(F0.01
I50
F0.29999999999999999
I2
I7
I300
tp710
(dp711
g4
F0.97999999999999987
sg5
F0.97666666666666657
sg6
F0.97817277932187063
sg7
F0.97710384795279992
ss(F0.01
I300
F0.75
I7
I3
I300
tp712
(dp713
g4
F0.71463414634146349
sg5
F0.43888888888888888
sg6
F0.41682469292225388
sg7
F0.42632031486883137
ss(F0.01
I300
F0.90000000000000002
I2
I15
I300
tp714
(dp715
g4
F0.91317073170731689
sg5
F0.86333333333333329
sg6
F0.93510859211980546
sg7
F0.89710942129430082
ss(F0.01
I300
F0.29999999999999999
I7
I10
I300
tp716
(dp717
g4
F0.99853658536585355
sg5
F0.99888888888888883
sg6
F0.9978021978021977
sg7
F0.99833636840643225
ss(F0.01
I600
F0.29999999999999999
I3
I7
I300
tp718
(dp719
g4
F0.99853658536585355
sg5
F0.99777777777777765
sg6
F0.99890109890109879
sg7
F0.99832391830653666
ss(F0.01
I300
F0.10000000000000001
I5
I3
I300
tp720
(dp721
g4
F0.92048780487804871
sg5
F0.85999999999999988
sg6
F0.86496826778079083
sg7
F0.86042989926461788
ss(F0.01
I100
F0.5
I5
I10
I300
tp722
(dp723
g4
F0.99756097560975598
sg5
F0.99777777777777765
sg6
F0.9967032967032966
sg7
F0.99721894593084603
ss(F0.01
I600
F0.90000000000000002
I3
I3
I300
tp724
(dp725
g4
F0.79560975609756079
sg5
F0.66666666666666674
sg6
F0.8552381324822973
sg7
F0.72832378393579034
ss(F0.01
I100
F0.10000000000000001
I7
I10
I300
tp726
(dp727
g4
F0.99560975609756086
sg5
F0.99222222222222212
sg6
F0.9978021978021977
sg7
F0.99484878484974282
ss(F0.01
I600
F0.10000000000000001
I5
I7
I300
tp728
(dp729
g4
F0.99756097560975598
sg5
F0.99555555555555542
sg6
F0.99890109890109879
sg7
F0.99719393934004008
ss(F0.01
I300
F0.5
I7
I3
I300
tp730
(dp731
g4
F0.77658536585365856
sg5
F0.52111111111111108
sg6
F0.57223327088653797
sg7
F0.53857032601340105
ss(F0.01
I600
F0.10000000000000001
I7
I5
I300
tp732
(dp733
g4
F0.97999999999999987
sg5
F0.96111111111111114
sg6
F0.99374999999999991
sg7
F0.97583547050521324
ss(F0.01
I600
F0.10000000000000001
I2
I5
I300
tp734
(dp735
g4
F0.99170731707317061
sg5
F0.98777777777777775
sg6
F0.99347749025168375
sg7
F0.99045600860854466
ss(F0.01
I300
F0.90000000000000002
I5
I7
I300
tp736
(dp737
g4
F0.83121951219512169
sg5
F0.79222222222222227
sg6
F0.82148750008890692
sg7
F0.79745121930981777
ss(F0.01
I100
F0.90000000000000002
I5
I7
I300
tp738
(dp739
g4
F0.75463414634146331
sg5
F0.70777777777777784
sg6
F0.7412010308121757
sg7
F0.70770746392384221
ss(F0.01
I300
F0.90000000000000002
I7
I15
I300
tp740
(dp741
g4
F0.92146341463414616
sg5
F0.92333333333333356
sg6
F0.90101050833900287
sg7
F0.91174352185571983
ss(F0.01
I600
F0.75
I3
I15
I300
tp742
(dp743
g4
F0.99999999999999989
sg5
F0.99999999999999989
sg6
F0.99999999999999989
sg7
F0.99999999999999989
ss(F0.01
I300
F0.5
I10
I10
I300
tp744
(dp745
g4
F0.99658536585365842
sg5
F0.99999999999999989
sg6
F0.99247186670868437
sg7
F0.99617469966977523
ss(F0.01
I300
F0.10000000000000001
I7
I15
I300
tp746
(dp747
g4
F0.99999999999999989
sg5
F0.99999999999999989
sg6
F0.99999999999999989
sg7
F0.99999999999999989
ss(F0.01
I100
F0.90000000000000002
I7
I5
I300
tp748
(dp749
g4
F0.7321951219512195
sg5
F0.7088888888888889
sg6
F0.69701897695610038
sg7
F0.69429349867049717
ss(F0.01
I50
F0.10000000000000001
I10
I5
I300
tp750
(dp751
g4
F0.8648780487804878
sg5
F0.72555555555555551
sg6
F0.76980357024808455
sg7
F0.74335982495452513
ss(F0.01
I600
F0.90000000000000002
I3
I15
I300
tp752
(dp753
g4
F0.95804878048780473
sg5
F0.9555555555555556
sg6
F0.94978704369925704
sg7
F0.95240557066644549
ss(F0.01
I200
F0.10000000000000001
I5
I10
I300
tp754
(dp755
g4
F0.99268292682926818
sg5
F0.98333333333333317
sg6
F0.99999999999999989
sg7
F0.9910076058423638
ss(F0.01
I100
F0.75
I10
I5
I300
tp756
(dp757
g4
F0.74536585365853647
sg5
F0.6333333333333333
sg6
F0.5251142166809325
sg7
F0.57262918684331499
ss(F0.01
I50
F0.10000000000000001
I2
I3
I300
tp758
(dp759
g4
F0.92780487804878031
sg5
F0.90666666666666662
sg6
F0.93263536890804066
sg7
F0.91214942747911498
ss(F0.01
I100
F0.75
I10
I7
I300
tp760
(dp761
g4
F0.90536585365853639
sg5
F0.89555555555555555
sg6
F0.89322421745304958
sg7
F0.88958095063851683
ss(F0.01
I50
F0.90000000000000002
I2
I15
I300
tp762
(dp763
g4
F0.70975609756097557
sg5
F0.52666666666666662
sg6
F0.74556106368817332
sg7
F0.61108465383816657
ss(F0.01
I200
F0.29999999999999999
I5
I15
I300
tp764
(dp765
g4
F0.99999999999999989
sg5
F0.99999999999999989
sg6
F0.99999999999999989
sg7
F0.99999999999999989
ss(F0.01
I200
F0.10000000000000001
I3
I5
I300
tp766
(dp767
g4
F0.97853658536585353
sg5
F0.95999999999999996
sg6
F0.99183673469387745
sg7
F0.9746451906139707
ss(F0.01
I100
F0.5
I10
I15
I300
tp768
(dp769
g4
F0.99756097560975598
sg5
F0.99999999999999989
sg6
F0.99452938365981836
sg7
F0.99724364033756285
ss(F0.01
I200
F0.90000000000000002
I2
I10
I300
tp770
(dp771
g4
F0.8209756097560974
sg5
F0.70777777777777784
sg6
F0.86231631944864839
sg7
F0.77570475051812138
ss(F0.01
I200
F0.90000000000000002
I5
I3
I300
tp772
(dp773
g4
F0.70048780487804896
sg5
F0.59666666666666679
sg6
F0.56120986062778688
sg7
F0.5676229454162266
ss(F0.01
I50
F0.90000000000000002
I3
I10
I300
tp774
(dp775
g4
F0.63902439024390256
sg5
F0.29888888888888887
sg6
F0.7006486348890999
sg7
F0.399319097667241
ss(F0.01
I200
F0.90000000000000002
I3
I7
I300
tp776
(dp777
g4
F0.79609756097560957
sg5
F0.66888888888888898
sg6
F0.84419350388426673
sg7
F0.73896501543833282
ss(F0.01
I200
F0.10000000000000001
I5
I7
I300
tp778
(dp779
g4
F0.99268292682926818
sg5
F0.99999999999999989
sg6
F0.98473719564980855
sg7
F0.99203696422174326
ss(F0.01
I50
F0.75
I3
I15
I300
tp780
(dp781
g4
F0.88439024390243881
sg5
F0.84555555555555562
sg6
F0.8866143070883632
sg7
F0.86504616931024603
ss(F0.01
I600
F0.90000000000000002
I7
I5
I300
tp782
(dp783
g4
F0.85365853658536572
sg5
F0.79999999999999993
sg6
F0.77509696154548269
sg7
F0.78417976688818247
ss(F0.01
I100
F0.5
I10
I5
I300
tp784
(dp785
g4
F0.90390243902439005
sg5
F0.89888888888888896
sg6
F0.89436676581438446
sg7
F0.88822569433601306
ss(F0.01
I200
F0.75
I3
I10
I300
tp786
(dp787
g4
F0.98487804878048768
sg5
F0.98444444444444434
sg6
F0.98141991182429178
sg7
F0.98276455846680077
ss(F0.01
I100
F0.75
I7
I3
I300
tp788
(dp789
g4
F0.7804878048780487
sg5
F0.71111111111111114
sg6
F0.79254893544046301
sg7
F0.73332182977653704
ss(F0.01
I200
F0.90000000000000002
I5
I5
I300
tp790
(dp791
g4
F0.7599999999999999
sg5
F0.62444444444444447
sg6
F0.72499431205889131
sg7
F0.6570675615466226
ss(F0.01
I300
F0.90000000000000002
I5
I3
I300
tp792
(dp793
g4
F0.7014634146341463
sg5
F0.51777777777777778
sg6
F0.67518994246197639
sg7
F0.57518674454994134
ss(F0.01
I100
F0.75
I5
I5
I300
tp794
(dp795
g4
F0.86487804878048768
sg5
F0.83999999999999986
sg6
F0.86054033429491117
sg7
F0.84283608677989785
ss(F0.01
I300
F0.10000000000000001
I2
I5
I300
tp796
(dp797
g4
F0.99560975609756086
sg5
F0.99666666666666659
sg6
F0.9934543717152412
sg7
F0.99501497070301215
ss(F0.01
I300
F0.90000000000000002
I7
I3
I300
tp798
(dp799
g4
F0.67902439024390238
sg5
F0.39777777777777779
sg6
F0.45800110880653278
sg7
F0.41916269181988819
ss(F0.01
I200
F0.5
I3
I5
I300
tp800
(dp801
g4
F0.98926829268292671
sg5
F0.98777777777777775
sg6
F0.9879877638550163
sg7
F0.98775673275851528
ss(F0.01
I300
F0.75
I2
I10
I300
tp802
(dp803
g4
F0.99756097560975598
sg5
F0.99777777777777776
sg6
F0.9967032967032966
sg7
F0.99722522300070982
ss(F0.01
I200
F0.90000000000000002
I5
I15
I300
tp804
(dp805
g4
F0.87121951219512173
sg5
F0.82666666666666666
sg6
F0.87513014198712336
sg7
F0.84949870392697413
ss(F0.01
I600
F0.75
I3
I7
I300
tp806
(dp807
g4
F0.9946341463414633
sg5
F0.99222222222222212
sg6
F0.99560439560439551
sg7
F0.99386060951388766
ss(F0.01
I50
F0.90000000000000002
I3
I5
I300
tp808
(dp809
g4
F0.58926829268292691
sg5
F0.091111111111111087
sg6
F0.5642428465254552
sg7
F0.15164878332634465
ss(F0.01
I100
F0.29999999999999999
I7
I7
I300
tp810
(dp811
g4
F0.9717073170731706
sg5
F0.99222222222222212
sg6
F0.94944033780379633
sg7
F0.96937659254152553
ss(F0.01
I100
F0.75
I5
I7
I300
tp812
(dp813
g4
F0.88487804878048759
sg5
F0.87111111111111095
sg6
F0.87338782634323098
sg7
F0.86908766641028246
ss(F0.01
I50
F0.10000000000000001
I3
I5
I300
tp814
(dp815
g4
F0.94926829268292667
sg5
F0.96555555555555539
sg6
F0.93113471055788433
sg7
F0.94467383743239752
ss(F0.01
I200
F0.29999999999999999
I2
I3
I300
tp816
(dp817
g4
F0.9463414634146341
sg5
F0.90999999999999992
sg6
F0.97030441985702265
sg7
F0.92909463145428506
ss(F0.01
I100
F0.5
I10
I3
I300
tp818
(dp819
g4
F0.74341463414634146
sg5
F0.53333333333333333
sg6
F0.50281664821965844
sg7
F0.50987366159217329
ss(F0.01
I200
F0.90000000000000002
I10
I5
I300
tp820
(dp821
g4
F0.72048780487804875
sg5
F0.53111111111111109
sg6
F0.53851435256714797
sg7
F0.52197362164324235
ss(F0.01
I300
F0.10000000000000001
I7
I5
I300
tp822
(dp823
g4
F0.97121951219512181
sg5
F0.97777777777777763
sg6
F0.96250105438163092
sg7
F0.96792004884540306
ss(F0.01
I50
F0.90000000000000002
I5
I5
I300
tp824
(dp825
g4
F0.60341463414634156
sg5
F0.18333333333333332
sg6
F0.35386083903909488
sg7
F0.21749455282043423
ss(F0.01
I200
F0.75
I2
I10
I300
tp826
(dp827
g4
F0.9868292682926828
sg5
F0.98444444444444446
sg6
F0.98564750414583568
sg7
F0.98495154235745308
ss(F0.01
I50
F0.29999999999999999
I10
I10
I300
tp828
(dp829
g4
F0.96536585365853644
sg5
F0.97888888888888881
sg6
F0.94583886345312296
sg7
F0.96075325859967764
ss(F0.01
I50
F0.29999999999999999
I5
I7
I300
tp830
(dp831
g4
F0.96292682926829254
sg5
F0.9522222222222223
sg6
F0.96654316745578051
sg7
F0.9570473088888064
ss(F0.01
I50
F0.10000000000000001
I10
I15
I300
tp832
(dp833
g4
F0.9765853658536584
sg5
F0.97555555555555551
sg6
F0.97288944427703983
sg7
F0.97338140360828374
ss(F0.01
I50
F0.5
I7
I15
I300
tp834
(dp835
g4
F0.98829268292682915
sg5
F0.98777777777777775
sg6
F0.98572276912739742
sg7
F0.98667791970824714
ss(F0.01
I50
F0.29999999999999999
I7
I10
I300
tp836
(dp837
g4
F0.97121951219512181
sg5
F0.95333333333333325
sg6
F0.98256292906178477
sg7
F0.96585093212347828
ss(F0.01
I100
F0.5
I7
I10
I300
tp838
(dp839
g4
F0.98829268292682915
sg5
F0.99777777777777776
sg6
F0.97661521982569732
sg7
F0.98693164787408172
ss(F0.01
I600
F0.10000000000000001
I7
I3
I300
tp840
(dp841
g4
F0.86878048780487793
sg5
F0.75444444444444447
sg6
F0.85556351706768508
sg7
F0.7860427949847314
ss(F0.01
I300
F0.90000000000000002
I5
I15
I300
tp842
(dp843
g4
F0.91463414634146323
sg5
F0.88444444444444448
sg6
F0.91921848701780362
sg7
F0.90080619621560865
ss(F0.01
I200
F0.10000000000000001
I10
I15
I300
tp844
(dp845
g4
F0.99999999999999989
sg5
F0.99999999999999989
sg6
F0.99999999999999989
sg7
F0.99999999999999989
ss(F0.01
I200
F0.29999999999999999
I3
I7
I300
tp846
(dp847
g4
F0.99951219512195111
sg5
F0.99999999999999989
sg6
F0.99890109890109879
sg7
F0.99944751381215458
ss(F0.01
I300
F0.10000000000000001
I10
I15
I300
tp848
(dp849
g4
F0.99951219512195111
sg5
F0.99888888888888883
sg6
F0.99999999999999989
sg7
F0.99944134078212277
ss(F0.01
I50
F0.5
I3
I10
I300
tp850
(dp851
g4
F0.96439024390243888
sg5
F0.95999999999999996
sg6
F0.95951755915492021
sg7
F0.95943763472436749
ss(F0.01
I100
F0.10000000000000001
I2
I5
I300
tp852
(dp853
g4
F0.98487804878048768
sg5
F0.97333333333333338
sg6
F0.99247186670868437
sg7
F0.98243299246751548
ss(F0.01
I300
F0.29999999999999999
I3
I10
I300
tp854
(dp855
g4
F0.99999999999999989
sg5
F0.99999999999999989
sg6
F0.99999999999999989
sg7
F0.99999999999999989
ss(F0.01
I50
F0.10000000000000001
I10
I3
I300
tp856
(dp857
g4
F0.64341463414634137
sg5
F0.23222222222222225
sg6
F0.36428571428571432
sg7
F0.26381509291868782
ss(F0.01
I300
F0.10000000000000001
I2
I10
I300
tp858
(dp859
g4
F0.99999999999999989
sg5
F0.99999999999999989
sg6
F0.99999999999999989
sg7
F0.99999999999999989
ss(F0.01
I200
F0.5
I10
I3
I300
tp860
(dp861
g4
F0.60195121951219521
sg5
F0.10000000000000001
sg6
F0.09375
sg7
F0.096774193548387094
ss(F0.01
I200
F0.29999999999999999
I3
I5
I300
tp862
(dp863
g4
F0.98585365853658524
sg5
F0.9722222222222221
sg6
F0.99562828475871945
sg7
F0.98333399313934544
ss(F0.01
I100
F0.75
I10
I15
I300
tp864
(dp865
g4
F0.96780487804878035
sg5
F0.96333333333333326
sg6
F0.96359628302089151
sg7
F0.9633215253843852
ss(F0.01
I50
F0.10000000000000001
I7
I15
I300
tp866
(dp867
g4
F0.99658536585365842
sg5
F0.99888888888888883
sg6
F0.99350112253338052
sg7
F0.99616278718715079
ss(F0.01
I300
F0.29999999999999999
I7
I7
I300
tp868
(dp869
g4
F0.99268292682926818
sg5
F0.98666666666666658
sg6
F0.9967032967032966
sg7
F0.99119968429360683
ss(F0.01
I100
F0.10000000000000001
I2
I3
I300
tp870
(dp871
g4
F0.92634146341463408
sg5
F0.89111111111111108
sg6
F0.94959473673651296
sg7
F0.90731389387901751
ss(F0.01
I300
F0.29999999999999999
I5
I5
I300
tp872
(dp873
g4
F0.99317073170731696
sg5
F0.99111111111111105
sg6
F0.99363794100636194
sg7
F0.99217921681162891
ss(F0.01
I200
F0.5
I10
I5
I300
tp874
(dp875
g4
F0.97317073170731694
sg5
F0.98333333333333328
sg6
F0.9585915554087967
sg7
F0.969692440595051
ss(F0.01
I100
F0.29999999999999999
I2
I7
I300
tp876
(dp877
g4
F0.99658536585365842
sg5
F0.99444444444444446
sg6
F0.9978021978021977
sg7
F0.99606364113370505
ss(F0.01
I50
F0.90000000000000002
I5
I3
I300
tp878
(dp879
g4
F0.58000000000000007
sg5
F0.091111111111111115
sg6
F0.24444444444444444
sg7
F0.11146264908976775
ss(F0.01
I300
F0.29999999999999999
I7
I5
I300
tp880
(dp881
g4
F0.99024390243902427
sg5
F0.99555555555555542
sg6
F0.98326502811096606
sg7
F0.98913915480442538
ss(F0.01
I50
F0.29999999999999999
I10
I5
I300
tp882
(dp883
g4
F0.87512195121951208
sg5
F0.8222222222222223
sg6
F0.80839421298377501
sg7
F0.80996415231813201
ss(F0.01
I100
F0.29999999999999999
I7
I3
I300
tp884
(dp885
g4
F0.85073170731707304
sg5
F0.76777777777777767
sg6
F0.81358711876735512
sg7
F0.77253423892234585
ss(F0.01
I300
F0.5
I5
I3
I300
tp886
(dp887
g4
F0.86341463414634134
sg5
F0.82444444444444442
sg6
F0.79579855024307578
sg7
F0.79791208323362162
ss(F0.01
I100
F0.90000000000000002
I5
I10
I300
tp888
(dp889
g4
F0.74585365853658514
sg5
F0.6677777777777778
sg6
F0.75372015452296592
sg7
F0.67719809677322429
ss(F0.01
I50
F0.10000000000000001
I3
I10
I300
tp890
(dp891
g4
F0.9970731707317072
sg5
F0.99888888888888872
sg6
F0.99457639135058484
sg7
F0.99669702414413708
ss(F0.01
I50
F0.75
I3
I5
I300
tp892
(dp893
g4
F0.75951219512195101
sg5
F0.66666666666666663
sg6
F0.77761041608650272
sg7
F0.70091392333574731
ss(F0.01
I600
F0.90000000000000002
I5
I15
I300
tp894
(dp895
g4
F0.96585365853658522
sg5
F0.96555555555555561
sg6
F0.9571968276386229
sg7
F0.96123556538908306
ss(F0.01
I600
F0.90000000000000002
I7
I7
I300
tp896
(dp897
g4
F0.9102439024390242
sg5
F0.90888888888888908
sg6
F0.89065367006425522
sg7
F0.89848022852715026
ss(F0.01
I200
F0.90000000000000002
I7
I3
I300
tp898
(dp899
g4
F0.73756097560975609
sg5
F0.64222222222222225
sg6
F0.5960637843610781
sg7
F0.60632216005024997
ss(F0.01
I600
F0.75
I3
I10
I300
tp900
(dp901
g4
F0.99951219512195111
sg5
F0.99888888888888872
sg6
F0.99999999999999989
sg7
F0.99944134078212277
ss(F0.01
I300
F0.10000000000000001
I2
I7
I300
tp902
(dp903
g4
F0.99756097560975598
sg5
F0.99444444444444424
sg6
F0.99999999999999989
sg7
F0.9971814892401446
ss(F0.01
I50
F0.29999999999999999
I2
I15
I300
tp904
(dp905
g4
F0.99999999999999989
sg5
F0.99999999999999989
sg6
F0.99999999999999989
sg7
F0.99999999999999989
ss(F0.01
I300
F0.5
I10
I7
I300
tp906
(dp907
g4
F0.9946341463414633
sg5
F0.99888888888888883
sg6
F0.9894868018579358
sg7
F0.99404056671056562
ss(F0.01
I200
F0.5
I5
I5
I300
tp908
(dp909
g4
F0.98048780487804865
sg5
F0.98222222222222222
sg6
F0.97489065906390204
sg7
F0.9779265126360025
ss(F0.01
I50
F0.90000000000000002
I3
I3
I300
tp910
(dp911
g4
F0.59219512195121959
sg5
F0.19888888888888887
sg6
F0.47879460745440133
sg7
F0.20019069620674049
ss(F0.01
I300
F0.5
I7
I5
I300
tp912
(dp913
g4
F0.98195121951219499
sg5
F0.99444444444444435
sg6
F0.96646808022794739
sg7
F0.97992752963250351
ss(F0.01
I100
F0.29999999999999999
I3
I3
I300
tp914
(dp915
g4
F0.92390243902439007
sg5
F0.93444444444444441
sg6
F0.91044337000683118
sg7
F0.91355013158895571
ss(F0.01
I300
F0.5
I7
I15
I300
tp916
(dp917
g4
F0.99999999999999989
sg5
F0.99999999999999989
sg6
F0.99999999999999989
sg7
F0.99999999999999989
ss(F0.01
I200
F0.29999999999999999
I7
I3
I300
tp918
(dp919
g4
F0.80878048780487799
sg5
F0.6744444444444444
sg6
F0.61879728281427304
sg7
F0.63990034009303554
ss(F0.01
I200
F0.75
I5
I7
I300
tp920
(dp921
g4
F0.96487804878048766
sg5
F0.97444444444444434
sg6
F0.94832494611409113
sg7
F0.96066648797438392
ss(F0.01
I200
F0.90000000000000002
I2
I5
I300
tp922
(dp923
g4
F0.76536585365853649
sg5
F0.65555555555555556
sg6
F0.80138170054440172
sg7
F0.70650927394402252
ss(F0.01
I50
F0.75
I5
I15
I300
tp924
(dp925
g4
F0.89170731707317052
sg5
F0.85888888888888881
sg6
F0.89379290535299272
sg7
F0.87404452280904166
ss(F0.01
I600
F0.29999999999999999
I2
I10
I300
tp926
(dp927
g4
F0.99999999999999989
sg5
F0.99999999999999989
sg6
F0.99999999999999989
sg7
F0.99999999999999989
ss(F0.01
I100
F0.90000000000000002
I5
I15
I300
tp928
(dp929
g4
F0.77121951219512186
sg5
F0.72666666666666657
sg6
F0.75145047399200438
sg7
F0.73597197542661164
ss(F0.01
I50
F0.5
I5
I3
I300
tp930
(dp931
g4
F0.74780487804878037
sg5
F0.53555555555555556
sg6
F0.70755235598666999
sg7
F0.5823372415999708
ss(F0.01
I300
F0.10000000000000001
I7
I7
I300
tp932
(dp933
g4
F0.9946341463414633
sg5
F0.99888888888888872
sg6
F0.9892460602570714
sg7
F0.99397669618960305
ss(F0.01
I600
F0.75
I10
I10
I300
tp934
(dp935
g4
F0.99902439024390233
sg5
F0.99999999999999989
sg6
F0.9978021978021977
sg7
F0.99889502762430926
ss(F0.01
I200
F0.90000000000000002
I10
I15
I300
tp936
(dp937
g4
F0.87999999999999978
sg5
F0.86888888888888893
sg6
F0.86165829845912512
sg7
F0.86300568736496153
ss(F0.01
I300
F0.5
I7
I10
I300
tp938
(dp939
g4
F0.99999999999999989
sg5
F0.99999999999999989
sg6
F0.99999999999999989
sg7
F0.99999999999999989
ss(F0.01
I50
F0.5
I3
I15
I300
tp940
(dp941
g4
F0.99804878048780477
sg5
F0.99888888888888872
sg6
F0.9967032967032966
sg7
F0.99779005524861863
ss(F0.01
I600
F0.90000000000000002
I3
I7
I300
tp942
(dp943
g4
F0.89707317073170711
sg5
F0.84666666666666657
sg6
F0.91508477016135792
sg7
F0.87589428746674347
ss(F0.01
I600
F0.29999999999999999
I7
I10
I300
tp944
(dp945
g4
F0.99951219512195111
sg5
F0.99999999999999989
sg6
F0.99890109890109879
sg7
F0.99944751381215458
ss(F0.01
I600
F0.5
I7
I10
I300
tp946
(dp947
g4
F0.99951219512195111
sg5
F0.99999999999999989
sg6
F0.99890109890109879
sg7
F0.99944751381215458
ss(F0.01
I200
F0.90000000000000002
I5
I10
I300
tp948
(dp949
g4
F0.84780487804878024
sg5
F0.79222222222222227
sg6
F0.85865065500350901
sg7
F0.81956338821740626
ss(F0.01
I100
F0.90000000000000002
I7
I3
I300
tp950
(dp951
g4
F0.64439024390243904
sg5
F0.34444444444444444
sg6
F0.45589576562890599
sg7
F0.33913075914910779
ss(F0.01
I300
F0.90000000000000002
I7
I10
I300
tp952
(dp953
g4
F0.89512195121951199
sg5
F0.86888888888888882
sg6
F0.89249751404582423
sg7
F0.87573831297950222
ss(F0.01
I100
F0.5
I3
I5
I300
tp954
(dp955
g4
F0.95512195121951204
sg5
F0.96666666666666656
sg6
F0.93675971445660311
sg7
F0.94996982940429497
ss(F0.01
I100
F0.5
I10
I7
I300
tp956
(dp957
g4
F0.96585365853658522
sg5
F0.95444444444444432
sg6
F0.97059788623366383
sg7
F0.96013383205986835
ss(F0.01
I200
F0.5
I3
I10
I300
tp958
(dp959
g4
F0.99902439024390233
sg5
F0.99777777777777765
sg6
F0.99999999999999989
sg7
F0.99888268156424576
ss(F0.01
I600
F0.10000000000000001
I10
I10
I300
tp960
(dp961
g4
F0.99902439024390233
sg5
F0.99888888888888883
sg6
F0.99890109890109879
sg7
F0.99888885459427745
ss(F0.01
I100
F0.5
I7
I3
I300
tp962
(dp963
g4
F0.82048780487804862
sg5
F0.77555555555555555
sg6
F0.65961169458842894
sg7
F0.7067530057570951
ss(F0.01
I50
F0.90000000000000002
I2
I5
I300
tp964
(dp965
g4
F0.62487804878048792
sg5
F0.25999999999999995
sg6
F0.81448512035468568
sg7
F0.33493340262329702
ss(F0.01
I50
F0.29999999999999999
I7
I5
I300
tp966
(dp967
g4
F0.88780487804878028
sg5
F0.98222222222222211
sg6
F0.82521989508544125
sg7
F0.89111195466582505
ss(F0.01
I50
F0.10000000000000001
I2
I15
I300
tp968
(dp969
g4
F0.99999999999999989
sg5
F0.99999999999999989
sg6
F0.99999999999999989
sg7
F0.99999999999999989
ss(F0.01
I50
F0.5
I7
I10
I300
tp970
(dp971
g4
F0.94682926829268277
sg5
F0.97333333333333327
sg6
F0.91835472991673051
sg7
F0.94245014876226851
ss(F0.01
I100
F0.5
I7
I7
I300
tp972
(dp973
g4
F0.96536585365853644
sg5
F0.94000000000000006
sg6
F0.98218972438472341
sg7
F0.9588760721699654
ss(F0.01
I600
F0.10000000000000001
I7
I10
I300
tp974
(dp975
g4
F0.99999999999999989
sg5
F0.99999999999999989
sg6
F0.99999999999999989
sg7
F0.99999999999999989
ss(F0.01
I100
F0.5
I5
I15
I300
tp976
(dp977
g4
F0.99999999999999989
sg5
F0.99999999999999989
sg6
F0.99999999999999989
sg7
F0.99999999999999989
ss(F0.01
I300
F0.10000000000000001
I5
I10
I300
tp978
(dp979
g4
F0.99951219512195111
sg5
F0.99999999999999989
sg6
F0.99890109890109879
sg7
F0.99944751381215458
ss(F0.01
I200
F0.75
I7
I10
I300
tp980
(dp981
g4
F0.99024390243902427
sg5
F0.99333333333333329
sg6
F0.98471910387710548
sg7
F0.98891793606820477
ss(F0.01
I100
F0.29999999999999999
I2
I5
I300
tp982
(dp983
g4
F0.97951219512195109
sg5
F0.95999999999999996
sg6
F0.99344242713807918
sg7
F0.975735214195385
ss(F0.01
I200
F0.90000000000000002
I5
I7
I300
tp984
(dp985
g4
F0.8034146341463414
sg5
F0.71333333333333337
sg6
F0.83111671243475604
sg7
F0.74950152963676064
ss(F0.01
I600
F0.29999999999999999
I10
I10
I300
tp986
(dp987
g4
F0.99999999999999989
sg5
F0.99999999999999989
sg6
F0.99999999999999989
sg7
F0.99999999999999989
ss(F0.01
I100
F0.10000000000000001
I2
I10
I300
tp988
(dp989
g4
F0.99999999999999989
sg5
F0.99999999999999989
sg6
F0.99999999999999989
sg7
F0.99999999999999989
ss(F0.01
I100
F0.29999999999999999
I7
I5
I300
tp990
(dp991
g4
F0.96975609756097547
sg5
F0.95333333333333314
sg6
F0.98007202881152455
sg7
F0.96503028017280046
ss(F0.01
I50
F0.75
I3
I3
I300
tp992
(dp993
g4
F0.69707317073170738
sg5
F0.44555555555555554
sg6
F0.64224741182590028
sg7
F0.50731571037785295
ss(F0.01
I50
F0.75
I7
I10
I300
tp994
(dp995
g4
F0.84829268292682902
sg5
F0.8899999999999999
sg6
F0.79547803473766343
sg7
F0.83756043469708952
ss(F0.01
I100
F0.75
I5
I15
I300
tp996
(dp997
g4
F0.95999999999999985
sg5
F0.94999999999999996
sg6
F0.95893863215204633
sg7
F0.95416258654730002
ss(F0.01
I600
F0.90000000000000002
I2
I10
I300
tp998
(dp999
g4
F0.94243902439024374
sg5
F0.9211111111111111
sg6
F0.94620154049764094
sg7
F0.93315801128289355
ss(F0.01
I300
F0.90000000000000002
I10
I5
I300
tp1000
(dp1001
g4
F0.77219512195121953
sg5
F0.63
sg6
F0.64995787146151296
sg7
F0.63752217292687696
ss(F0.01
I50
F0.5
I3
I3
I300
tp1002
(dp1003
g4
F0.81756097560975594
sg5
F0.77333333333333321
sg6
F0.83496361098727923
sg7
F0.784314348965098
ss(F0.01
I200
F0.90000000000000002
I10
I7
I300
tp1004
(dp1005
g4
F0.84195121951219487
sg5
F0.84777777777777774
sg6
F0.80733342815132514
sg7
F0.82437273330936955
ss(F0.01
I600
F0.90000000000000002
I2
I3
I300
tp1006
(dp1007
g4
F0.76390243902439003
sg5
F0.58666666666666678
sg6
F0.85058582482255884
sg7
F0.67243254945889375
ss(F0.01
I50
F0.90000000000000002
I5
I10
I300
tp1008
(dp1009
g4
F0.66536585365853651
sg5
F0.43666666666666665
sg6
F0.71959698819132556
sg7
F0.48639227094085319
ss(F0.01
I300
F0.75
I3
I15
I300
tp1010
(dp1011
g4
F0.99999999999999989
sg5
F0.99999999999999989
sg6
F0.99999999999999989
sg7
F0.99999999999999989
ss(F0.01
I100
F0.5
I5
I5
I300
tp1012
(dp1013
g4
F0.94682926829268277
sg5
F0.92000000000000015
sg6
F0.96220336815439167
sg7
F0.93632142572354871
ss(F0.01
I300
F0.90000000000000002
I10
I7
I300
tp1014
(dp1015
g4
F0.79170731707317066
sg5
F0.65222222222222226
sg6
F0.67264922125368098
sg7
F0.65660861298325701
ss(F0.01
I50
F0.10000000000000001
I3
I3
I300
tp1016
(dp1017
g4
F0.87707317073170721
sg5
F0.84777777777777763
sg6
F0.79830862925784707
sg7
F0.81567852461582269
ss(F0.01
I300
F0.5
I10
I5
I300
tp1018
(dp1019
g4
F0.93414634146341458
sg5
F0.87444444444444436
sg6
F0.87706972584638976
sg7
F0.87480759408310349
ss(F0.01
I300
F0.90000000000000002
I10
I3
I300
tp1020
(dp1021
g4
F0.60731707317073169
sg5
F0.20444444444444446
sg6
F0.20095421055964871
sg7
F0.20081009463075022
ss(F0.01
I100
F0.10000000000000001
I3
I7
I300
tp1022
(dp1023
g4
F0.99317073170731696
sg5
F0.99111111111111094
sg6
F0.99343048256091726
sg7
F0.99211928278203065
ss(F0.01
I600
F0.75
I3
I3
I300
tp1024
(dp1025
g4
F0.91414634146341445
sg5
F0.87111111111111095
sg6
F0.93373490133814296
sg7
F0.89861225939460643
ss(F0.01
I100
F0.90000000000000002
I2
I5
I300
tp1026
(dp1027
g4
F0.69951219512195117
sg5
F0.67666666666666664
sg6
F0.69072231845602727
sg7
F0.65324842979261455
ss(F0.01
I600
F0.5
I3
I5
I300
tp1028
(dp1029
g4
F0.99365853658536574
sg5
F0.99333333333333318
sg6
F0.99240247830710648
sg7
F0.9927409801880932
ss(F0.01
I50
F0.29999999999999999
I5
I15
I300
tp1030
(dp1031
g4
F0.99853658536585355
sg5
F0.99999999999999989
sg6
F0.9967032967032966
sg7
F0.99834254143646395
ss(F0.01
I300
F0.90000000000000002
I3
I5
I300
tp1032
(dp1033
g4
F0.79707317073170714
sg5
F0.64555555555555555
sg6
F0.86933876350878092
sg7
F0.72759515418936327
ss(F0.01
I50
F0.5
I7
I7
I300
tp1034
(dp1035
g4
F0.88439024390243892
sg5
F0.82999999999999996
sg6
F0.81496440561820749
sg7
F0.81918101951452771
ss(F0.01
I300
F0.5
I7
I7
I300
tp1036
(dp1037
g4
F0.98780487804878037
sg5
F0.98666666666666658
sg6
F0.98677419354838702
sg7
F0.98623341990587909
ss(F0.01
I50
F0.10000000000000001
I7
I10
I300
tp1038
(dp1039
g4
F0.98146341463414621
sg5
F0.96777777777777785
sg6
F0.99021422126260827
sg7
F0.97800744875534495
ss(F0.01
I100
F0.90000000000000002
I2
I7
I300
tp1040
(dp1041
g4
F0.72780487804878036
sg5
F0.58777777777777773
sg6
F0.76215197250144917
sg7
F0.6480109509786488
ss(F0.01
I600
F0.29999999999999999
I10
I15
I300
tp1042
(dp1043
g4
F0.99999999999999989
sg5
F0.99999999999999989
sg6
F0.99999999999999989
sg7
F0.99999999999999989
ss(F0.01
I100
F0.5
I5
I3
I300
tp1044
(dp1045
g4
F0.85658536585365841
sg5
F0.78333333333333333
sg6
F0.81149268018507092
sg7
F0.7836101001562541
ss(F0.01
I200
F0.5
I7
I7
I300
tp1046
(dp1047
g4
F0.99170731707317061
sg5
F0.99999999999999989
sg6
F0.98229003139717419
sg7
F0.99086141583591492
ss(F0.01
I600
F0.10000000000000001
I3
I10
I300
tp1048
(dp1049
g4
F0.99999999999999989
sg5
F0.99999999999999989
sg6
F0.99999999999999989
sg7
F0.99999999999999989
ss(F0.01
I200
F0.90000000000000002
I2
I7
I300
tp1050
(dp1051
g4
F0.80487804878048763
sg5
F0.74444444444444446
sg6
F0.80352356073045739
sg7
F0.76899421076609942
ss(F0.01
I50
F0.5
I3
I7
I300
tp1052
(dp1053
g4
F0.92487804878048763
sg5
F0.90333333333333332
sg6
F0.92713234136300726
sg7
F0.91240680025087317
ss(F0.01
I200
F0.90000000000000002
I10
I3
I300
tp1054
(dp1055
g4
F0.64048780487804879
sg5
F0.30666666666666664
sg6
F0.28381039779235656
sg7
F0.29478648416029818
ss(F0.01
I600
F0.29999999999999999
I7
I7
I300
tp1056
(dp1057
g4
F0.99560975609756086
sg5
F0.99888888888888872
sg6
F0.99141997330054976
sg7
F0.99507559728850414
ss(F0.01
I100
F0.10000000000000001
I10
I15
I300
tp1058
(dp1059
g4
F0.99853658536585355
sg5
F0.99999999999999989
sg6
F0.99672718585762055
sg7
F0.99834861271325348
ss(F0.01
I600
F0.90000000000000002
I2
I15
I300
tp1060
(dp1061
g4
F0.96780487804878035
sg5
F0.96111111111111114
sg6
F0.96560994589711946
sg7
F0.96308084693837104
ss(F0.01
I200
F0.29999999999999999
I2
I10
I300
tp1062
(dp1063
g4
F0.99999999999999989
sg5
F0.99999999999999989
sg6
F0.99999999999999989
sg7
F0.99999999999999989
ss(F0.01
I100
F0.5
I7
I5
I300
tp1064
(dp1065
g4
F0.88731707317073161
sg5
F0.86777777777777776
sg6
F0.79804337012085769
sg7
F0.82721780602439399
ss(F0.01
I600
F0.10000000000000001
I7
I7
I300
tp1066
(dp1067
g4
F0.9970731707317072
sg5
F0.99999999999999989
sg6
F0.99354838709677407
sg7
F0.99672131147540977
ss(F0.01
I600
F0.29999999999999999
I7
I5
I300
tp1068
(dp1069
g4
F0.99512195121951208
sg5
F0.99777777777777765
sg6
F0.99135058489897188
sg7
F0.99449274359410111
ss(F0.01
I200
F0.29999999999999999
I3
I3
I300
tp1070
(dp1071
g4
F0.9331707317073169
sg5
F0.91222222222222216
sg6
F0.93982054601433462
sg7
F0.91960420094754147
ss(F0.01
I100
F0.29999999999999999
I2
I15
I300
tp1072
(dp1073
g4
F0.99999999999999989
sg5
F0.99999999999999989
sg6
F0.99999999999999989
sg7
F0.99999999999999989
ss(F0.01
I600
F0.29999999999999999
I5
I7
I300
tp1074
(dp1075
g4
F0.99853658536585355
sg5
F0.99777777777777765
sg6
F0.99890109890109879
sg7
F0.99832391830653666
ss(F0.01
I600
F0.5
I7
I3
I300
tp1076
(dp1077
g4
F0.90878048780487797
sg5
F0.86555555555555541
sg6
F0.83815901821409255
sg7
F0.8490469784981457
ss(F0.01
I300
F0.5
I3
I5
I300
tp1078
(dp1079
g4
F0.99365853658536574
sg5
F0.99222222222222212
sg6
F0.99343048256091726
sg7
F0.9926449113751511
ss(F0.01
I50
F0.5
I2
I15
I300
tp1080
(dp1081
g4
F0.99804878048780477
sg5
F0.99888888888888872
sg6
F0.99671497584541047
sg7
F0.99778998778998762
ss(F0.01
I100
F0.29999999999999999
I7
I10
I300
tp1082
(dp1083
g4
F0.99317073170731696
sg5
F0.99999999999999989
sg6
F0.9849668519538114
sg7
F0.99235537108721239
ss(F0.01
I50
F0.75
I10
I10
I300
tp1084
(dp1085
g4
F0.84390243902438999
sg5
F0.87888888888888894
sg6
F0.7943873850029689
sg7
F0.83057148288619498
ss(F0.01
I200
F0.10000000000000001
I3
I15
I300
tp1086
(dp1087
g4
F0.99999999999999989
sg5
F0.99999999999999989
sg6
F0.99999999999999989
sg7
F0.99999999999999989
ss(F0.01
I300
F0.29999999999999999
I3
I3
I300
tp1088
(dp1089
g4
F0.96243902439024376
sg5
F0.97777777777777775
sg6
F0.94521458424596905
sg7
F0.95891704831138902
ss(F0.01
I50
F0.29999999999999999
I7
I3
I300
tp1090
(dp1091
g4
F0.76097560975609757
sg5
F0.55555555555555558
sg6
F0.70914404526056718
sg7
F0.60428361176711487
ss(F0.01
I100
F0.75
I3
I7
I300
tp1092
(dp1093
g4
F0.89121951219512174
sg5
F0.84222222222222209
sg6
F0.90417348917902707
sg7
F0.87068665860961258
ss(F0.01
I600
F0.10000000000000001
I3
I3
I300
tp1094
(dp1095
g4
F0.96292682926829254
sg5
F0.93000000000000005
sg6
F0.98713639301874589
sg7
F0.95417918886535547
ss(F0.01
I50
F0.75
I2
I10
I300
tp1096
(dp1097
g4
F0.8565853658536583
sg5
F0.79222222222222216
sg6
F0.87041426968634805
sg7
F0.82878745743550319
ss(F0.01
I300
F0.75
I10
I5
I300
tp1098
(dp1099
g4
F0.95268292682926814
sg5
F0.96444444444444433
sg6
F0.93377533457815831
sg7
F0.94682337846905362
ss(F0.01
I50
F0.29999999999999999
I10
I3
I300
tp1100
(dp1101
g4
F0.69560975609756115
sg5
F0.40888888888888886
sg6
F0.40833678091742603
sg7
F0.39878708494378701
ss(F0.01
I100
F0.5
I5
I7
I300
tp1102
(dp1103
g4
F0.98097560975609743
sg5
F0.9655555555555555
sg6
F0.9912204703509051
sg7
F0.97695282529209482
ss(F0.01
I100
F0.90000000000000002
I10
I10
I300
tp1104
(dp1105
g4
F0.78829268292682919
sg5
F0.79555555555555557
sg6
F0.74354337855886565
sg7
F0.76618244950913139
ss(F0.01
I100
F0.10000000000000001
I3
I5
I300
tp1106
(dp1107
g4
F0.96780487804878035
sg5
F0.96444444444444444
sg6
F0.9647635772411649
sg7
F0.96230605991904239
ss(F0.01
I300
F0.5
I10
I15
I300
tp1108
(dp1109
g4
F0.99951219512195111
sg5
F0.99999999999999989
sg6
F0.99890109890109879
sg7
F0.99944751381215458
ss(F0.01
I200
F0.90000000000000002
I2
I3
I300
tp1110
(dp1111
g4
F0.7395121951219511
sg5
F0.55555555555555558
sg6
F0.82401744971090474
sg7
F0.63174332393915111
ss(F0.01
I600
F0.5
I7
I7
I300
tp1112
(dp1113
g4
F0.99268292682926818
sg5
F0.99111111111111105
sg6
F0.99244948599787297
sg7
F0.99156392329512089
ss(F0.01
I100
F0.10000000000000001
I7
I7
I300
tp1114
(dp1115
g4
F0.98926829268292671
sg5
F0.99333333333333329
sg6
F0.98304011491940546
sg7
F0.98793115675155541
ss(F0.01
I200
F0.10000000000000001
I5
I5
I300
tp1116
(dp1117
g4
F0.9843902439024389
sg5
F0.99333333333333318
sg6
F0.97331238934627806
sg7
F0.98268350283262607
ss(F0.01
I50
F0.29999999999999999
I2
I10
I300
tp1118
(dp1119
g4
F0.9946341463414633
sg5
F0.99222222222222223
sg6
F0.99560359035200252
sg7
F0.99387306190037306
ss(F0.01
I200
F0.10000000000000001
I7
I7
I300
tp1120
(dp1121
g4
F0.99268292682926818
sg5
F0.99333333333333329
sg6
F0.99018155757286186
sg7
F0.99164951536141543
ss(F0.01
I200
F0.5
I5
I15
I300
tp1122
(dp1123
g4
F0.99999999999999989
sg5
F0.99999999999999989
sg6
F0.99999999999999989
sg7
F0.99999999999999989
ss(F0.01
I200
F0.90000000000000002
I3
I15
I300
tp1124
(dp1125
g4
F0.86536585365853635
sg5
F0.81444444444444442
sg6
F0.8714546802621983
sg7
F0.84154741319659343
ss(F0.01
I100
F0.90000000000000002
I3
I10
I300
tp1126
(dp1127
g4
F0.73853658536585354
sg5
F0.60666666666666669
sg6
F0.75716612165924779
sg7
F0.66446817980132511
ss(F0.01
I100
F0.29999999999999999
I10
I10
I300
tp1128
(dp1129
g4
F0.99121951219512183
sg5
F0.99888888888888872
sg6
F0.98167242771850205
sg7
F0.9901395497295058
ss(F0.01
I300
F0.10000000000000001
I2
I3
I300
tp1130
(dp1131
g4
F0.96634146341463401
sg5
F0.948888888888889
sg6
F0.97629448279426889
sg7
F0.96060738544094215
ss(F0.01
I600
F0.10000000000000001
I10
I5
I300
tp1132
(dp1133
g4
F0.93804878048780482
sg5
F0.89222222222222214
sg6
F0.86847507305601734
sg7
F0.87975337613399496
ss(F0.01
I300
F0.90000000000000002
I3
I7
I300
tp1134
(dp1135
g4
F0.85121951219512171
sg5
F0.77444444444444449
sg6
F0.87939088042330293
sg7
F0.81964252551510819
ss(F0.01
I50
F0.90000000000000002
I10
I7
I300
tp1136
(dp1137
g4
F0.64195121951219525
sg5
F0.39777777777777779
sg6
F0.40096369591226544
sg7
F0.38482278632326611
ss(F0.01
I100
F0.29999999999999999
I3
I7
I300
tp1138
(dp1139
g4
F0.98634146341463402
sg5
F0.97777777777777763
sg6
F0.99140803692145041
sg7
F0.98414893163630124
ss(F0.01
I50
F0.75
I3
I10
I300
tp1140
(dp1141
g4
F0.8287804878048779
sg5
F0.77000000000000002
sg6
F0.8341938530545393
sg7
F0.79599995139777202
ss(F0.01
I100
F0.90000000000000002
I2
I3
I300
tp1142
(dp1143
g4
F0.67073170731707321
sg5
F0.44666666666666666
sg6
F0.80056676999028198
sg7
F0.49542581119799656
ss(F0.01
I100
F0.75
I2
I7
I300
tp1144
(dp1145
g4
F0.89609756097560955
sg5
F0.84000000000000008
sg6
F0.92197259736283421
sg7
F0.8746232215522366
ss(F0.01
I50
F0.75
I7
I7
I300
tp1146
(dp1147
g4
F0.80536585365853652
sg5
F0.72666666666666668
sg6
F0.8227164739555064
sg7
F0.76257229635069357
ss(F0.01
I50
F0.90000000000000002
I10
I5
I300
tp1148
(dp1149
g4
F0.61853658536585365
sg5
F0.32666666666666666
sg6
F0.31338185483494413
sg7
F0.31753676704896217
ss(F0.01
I100
F0.29999999999999999
I3
I5
I300
tp1150
(dp1151
g4
F0.96243902439024376
sg5
F0.93999999999999984
sg6
F0.97330369529614691
sg7
F0.9541527378362531
ss(F0.01
I600
F0.5
I10
I15
I300
tp1152
(dp1153
g4
F0.99999999999999989
sg5
F0.99999999999999989
sg6
F0.99999999999999989
sg7
F0.99999999999999989
ss(F0.01
I300
F0.10000000000000001
I3
I5
I300
tp1154
(dp1155
g4
F0.98634146341463402
sg5
F0.98333333333333317
sg6
F0.98603186721088565
sg7
F0.98429233853324116
ss(F0.01
I50
F0.29999999999999999
I5
I5
I300
tp1156
(dp1157
g4
F0.94536585365853643
sg5
F0.95777777777777773
sg6
F0.92708112844786994
sg7
F0.93922704728166539
ss(F0.01
I300
F0.5
I2
I15
I300
tp1158
(dp1159
g4
F0.99999999999999989
sg5
F0.99999999999999989
sg6
F0.99999999999999989
sg7
F0.99999999999999989
ss(F0.01
I50
F0.10000000000000001
I2
I7
I300
tp1160
(dp1161
g4
F0.97902439024390231
sg5
F0.9588888888888889
sg6
F0.99335332333833082
sg7
F0.97547251074753483
ss(F0.01
I300
F0.5
I3
I7
I300
tp1162
(dp1163
g4
F0.99756097560975598
sg5
F0.99777777777777765
sg6
F0.99672718585762055
sg7
F0.99722501720763546
ss(F0.01
I300
F0.10000000000000001
I3
I7
I300
tp1164
(dp1165
g4
F0.99219512195121939
sg5
F0.98666666666666658
sg6
F0.99562828475871945
sg7
F0.99089138926259612
ss(F0.01
I50
F0.5
I7
I5
I300
tp1166
(dp1167
g4
F0.89170731707317052
sg5
F0.90888888888888886
sg6
F0.86509574253015065
sg7
F0.88131499531138824
ss(F0.01
I200
F0.10000000000000001
I2
I3
I300
tp1168
(dp1169
g4
F0.95804878048780473
sg5
F0.97222222222222221
sg6
F0.94845739113621297
sg7
F0.95590634141086672
ss(F0.01
I100
F0.29999999999999999
I3
I10
I300
tp1170
(dp1171
g4
F0.99902439024390233
sg5
F0.99999999999999989
sg6
F0.9978021978021977
sg7
F0.99889502762430926
ss(F0.01
I600
F0.90000000000000002
I10
I3
I300
tp1172
(dp1173
g4
F0.63414634146341475
sg5
F0.24666666666666665
sg6
F0.22698065390200778
sg7
F0.23571325717286634
ss(F0.01
I100
F0.10000000000000001
I3
I10
I300
tp1174
(dp1175
g4
F0.99999999999999989
sg5
F0.99999999999999989
sg6
F0.99999999999999989
sg7
F0.99999999999999989
ss(F0.01
I300
F0.90000000000000002
I7
I7
I300
tp1176
(dp1177
g4
F0.86439024390243879
sg5
F0.86555555555555552
sg6
F0.83719094534155059
sg7
F0.84781246902662555
ss(F0.01
I50
F0.29999999999999999
I5
I10
I300
tp1178
(dp1179
g4
F0.9868292682926828
sg5
F0.98555555555555552
sg6
F0.9851274046078945
sg7
F0.98504363720902788
ss(F0.01
I300
F0.10000000000000001
I5
I15
I300
tp1180
(dp1181
g4
F0.99999999999999989
sg5
F0.99999999999999989
sg6
F0.99999999999999989
sg7
F0.99999999999999989
ss(F0.01
I200
F0.90000000000000002
I10
I10
I300
tp1182
(dp1183
g4
F0.85463414634146317
sg5
F0.83888888888888891
sg6
F0.83232696711063325
sg7
F0.83494921134939437
ss(F0.01
I600
F0.75
I10
I7
I300
tp1184
(dp1185
g4
F0.94585365853658532
sg5
F0.89888888888888874
sg6
F0.87868710599512634
sg7
F0.88857625394224271
ss(F0.01
I200
F0.5
I2
I3
I300
tp1186
(dp1187
g4
F0.93170731707317056
sg5
F0.86444444444444446
sg6
F0.98050361267478059
sg7
F0.91404492003424198
ss(F0.01
I100
F0.10000000000000001
I7
I15
I300
tp1188
(dp1189
g4
F0.99902439024390233
sg5
F0.99999999999999989
sg6
F0.99782608695652164
sg7
F0.99890109890109879
ss(F0.01
I200
F0.29999999999999999
I7
I5
I300
tp1190
(dp1191
g4
F0.9868292682926828
sg5
F0.98999999999999999
sg6
F0.98086915490435966
sg7
F0.98513772991869875
ss(F0.01
I100
F0.75
I2
I10
I300
tp1192
(dp1193
g4
F0.93219512195121934
sg5
F0.90666666666666673
sg6
F0.93812241062672741
sg7
F0.92157376396235735
ss(F0.01
I50
F0.5
I5
I15
I300
tp1194
(dp1195
g4
F0.98878048780487793
sg5
F0.98888888888888882
sg6
F0.98562438560939303
sg7
F0.98719297205187362
ss(F0.01
I200
F0.90000000000000002
I7
I15
I300
tp1196
(dp1197
g4
F0.87512195121951197
sg5
F0.83777777777777795
sg6
F0.8732979546436126
sg7
F0.85476711548396023
ss(F0.01
I300
F0.90000000000000002
I10
I15
I300
tp1198
(dp1199
g4
F0.92585365853658519
sg5
F0.92333333333333312
sg6
F0.91049614647713972
sg7
F0.9157790108349867
ss(F0.01
I100
F0.10000000000000001
I10
I10
I300
tp1200
(dp1201
g4
F0.98146341463414621
sg5
F0.99999999999999989
sg6
F0.96096040399060756
sg7
F0.9797255097768186
ss(F0.01
I600
F0.75
I7
I7
I300
tp1202
(dp1203
g4
F0.99268292682926818
sg5
F0.99444444444444435
sg6
F0.98931018124394821
sg7
F0.99179552588793618
ss(F0.01
I100
F0.10000000000000001
I3
I15
I300
tp1204
(dp1205
g4
F0.99999999999999989
sg5
F0.99999999999999989
sg6
F0.99999999999999989
sg7
F0.99999999999999989
ss(F0.01
I600
F0.75
I10
I5
I300
tp1206
(dp1207
g4
F0.96975609756097547
sg5
F0.98666666666666669
sg6
F0.94939513235761208
sg7
F0.96690162888241649
ss(F0.01
I300
F0.29999999999999999
I3
I5
I300
tp1208
(dp1209
g4
F0.99219512195121939
sg5
F0.98777777777777775
sg6
F0.99452938365981836
sg7
F0.99080262817850928
ss(F0.01
I600
F0.90000000000000002
I5
I3
I300
tp1210
(dp1211
g4
F0.76487804878048782
sg5
F0.64333333333333331
sg6
F0.72109772203176425
sg7
F0.66858957927362694
ss(F0.01
I100
F0.29999999999999999
I5
I3
I300
tp1212
(dp1213
g4
F0.91999999999999982
sg5
F0.87888888888888883
sg6
F0.94554822490005819
sg7
F0.90036982960440126
ss(F0.01
I200
F0.29999999999999999
I2
I7
I300
tp1214
(dp1215
g4
F0.99512195121951208
sg5
F0.99444444444444435
sg6
F0.99457639135058484
sg7
F0.99445611020276492
ss(F0.01
I200
F0.5
I2
I10
I300
tp1216
(dp1217
g4
F0.99999999999999989
sg5
F0.99999999999999989
sg6
F0.99999999999999989
sg7
F0.99999999999999989
ss(F0.01
I100
F0.90000000000000002
I2
I15
I300
tp1218
(dp1219
g4
F0.793170731707317
sg5
F0.70444444444444443
sg6
F0.80603141977398307
sg7
F0.74651653331223322
ss(F0.01
I100
F0.75
I7
I15
I300
tp1220
(dp1221
g4
F0.96926829268292669
sg5
F0.98333333333333317
sg6
F0.94891570119385693
sg7
F0.96560654324348749
ss(F0.01
I600
F0.29999999999999999
I10
I7
I300
tp1222
(dp1223
g4
F0.95463414634146337
sg5
F0.89999999999999991
sg6
F0.89672718585762057
sg7
F0.8983486127132535
ss(F0.01
I300
F0.90000000000000002
I5
I10
I300
tp1224
(dp1225
g4
F0.87756097560975588
sg5
F0.83888888888888891
sg6
F0.88003502350323359
sg7
F0.85674277533685395
ss(F0.01
I100
F0.5
I3
I10
I300
tp1226
(dp1227
g4
F0.9970731707317072
sg5
F0.99777777777777776
sg6
F0.99561607474650948
sg7
F0.99667884238426541
ss(F0.01
I200
F0.75
I10
I10
I300
tp1228
(dp1229
g4
F0.97902439024390231
sg5
F0.99333333333333329
sg6
F0.96055263424907078
sg7
F0.97657116124909193
ss(F0.01
I600
F0.10000000000000001
I10
I7
I300
tp1230
(dp1231
g4
F0.98829268292682915
sg5
F0.99555555555555542
sg6
F0.97980500823812944
sg7
F0.98715437497183856
ss(F0.01
I200
F0.5
I3
I15
I300
tp1232
(dp1233
g4
F0.99999999999999989
sg5
F0.99999999999999989
sg6
F0.99999999999999989
sg7
F0.99999999999999989
ss(F0.01
I200
F0.90000000000000002
I2
I15
I300
tp1234
(dp1235
g4
F0.86975609756097538
sg5
F0.79666666666666663
sg6
F0.8959848445680626
sg7
F0.84261722842089515
ss(F0.01
I200
F0.75
I7
I7
I300
tp1236
(dp1237
g4
F0.96878048780487791
sg5
F0.96444444444444444
sg6
F0.96638977455868813
sg7
F0.96428771749634778
ss(F0.01
I50
F0.29999999999999999
I5
I3
I300
tp1238
(dp1239
g4
F0.86487804878048768
sg5
F0.84777777777777774
sg6
F0.86869495072126945
sg7
F0.84180547430237929
ss(F0.01
I200
F0.10000000000000001
I3
I10
I300
tp1240
(dp1241
g4
F0.99951219512195111
sg5
F0.99999999999999989
sg6
F0.99890109890109879
sg7
F0.99944751381215458
ss(F0.01
I50
F0.75
I7
I3
I300
tp1242
(dp1243
g4
F0.68146341463414617
sg5
F0.53333333333333333
sg6
F0.48477861069465267
sg7
F0.4973298222533783
ss(F0.01
I300
F0.90000000000000002
I10
I10
I300
tp1244
(dp1245
g4
F0.8897560975609754
sg5
F0.87555555555555564
sg6
F0.87700092146050057
sg7
F0.87417253689106778
ss(F0.01
I100
F0.10000000000000001
I10
I7
I300
tp1246
(dp1247
g4
F0.91999999999999993
sg5
F0.85111111111111104
sg6
F0.86816063903952922
sg7
F0.85643204283405461
ss(F0.01
I100
F0.75
I10
I10
I300
tp1248
(dp1249
g4
F0.92146341463414616
sg5
F0.95222222222222208
sg6
F0.8837563599531314
sg7
F0.91492801450917194
ss(F0.01
I100
F0.75
I3
I10
I300
tp1250
(dp1251
g4
F0.93804878048780471
sg5
F0.91333333333333333
sg6
F0.94470988891413665
sg7
F0.92817969304264358
ss(F0.01
I50
F0.75
I7
I15
I300
tp1252
(dp1253
g4
F0.88926829268292662
sg5
F0.89777777777777779
sg6
F0.86111579266965366
sg7
F0.87643513097785541
ss.