(dp1
(F0.00029999999999999997
I1200
F0
I3
I4
I300
tp2
(dp3
S'acc'
p4
F0.95951219512195107
sS'rec'
p5
F0.9322222222222224
sS'prec'
p6
F0.97508438600307334
sS'f1'
p7
F0.95255514827671517
ss(F0.00029999999999999997
I100
F0
I5
I4
I300
tp8
(dp9
g4
F0.60585365853658535
sg5
F0.14555555555555555
sg6
F0.26486486486486488
sg7
F0.16649212442539746
ss(F0.00029999999999999997
I600
F0
I3
I4
I300
tp10
(dp11
g4
F0.8263414634146341
sg5
F0.62333333333333341
sg6
F0.68280861337365251
sg7
F0.64945837238487136
ss(F0.00029999999999999997
I100
F0
I3
I6
I300
tp12
(dp13
g4
F0.64780487804878051
sg5
F0.5
sg6
F0.56938243426919222
sg7
F0.46751496847980412
ss(F0.00029999999999999997
I600
F0
I5
I4
I300
tp14
(dp15
g4
F0.87853658536585355
sg5
F0.7844444444444445
sg6
F0.8452073266476845
sg7
F0.80377615319441653
ss(F0.00029999999999999997
I300
F0
I5
I6
I300
tp16
(dp17
g4
F0.82536585365853654
sg5
F0.64777777777777779
sg6
F0.75597979108214708
sg7
F0.69124967983189078
ss(F0.00029999999999999997
I1200
F0
I3
I6
I300
tp18
(dp19
g4
F0.96243902439024376
sg5
F0.92222222222222228
sg6
F0.99194005005953678
sg7
F0.95452041377105601
ss(F0.00029999999999999997
I100
F0
I5
I10
I300
tp20
(dp21
g4
F0.66926829268292687
sg5
F0.27999999999999997
sg6
F0.4676785714285715
sg7
F0.31396346280922977
ss(F0.00029999999999999997
I300
F0
I3
I4
I300
tp22
(dp23
g4
F0.77560975609756089
sg5
F0.55777777777777771
sg6
F0.64415655833528174
sg7
F0.5753564514924393
ss(F0.00029999999999999997
I600
F0
I3
I6
I300
tp24
(dp25
g4
F0.90780487804878041
sg5
F0.81333333333333324
sg6
F0.87743778411681339
sg7
F0.84237106886654889
ss(F0.00029999999999999997
I900
F0
I5
I4
I300
tp26
(dp27
g4
F0.95073170731707302
sg5
F0.93333333333333324
sg6
F0.9591503182444937
sg7
F0.94398322653879119
ss(F0.00029999999999999997
I300
F0
I5
I4
I300
tp28
(dp29
g4
F0.78634146341463418
sg5
F0.54666666666666663
sg6
F0.66802648332060088
sg7
F0.59339496924710544
ss(F0.00029999999999999997
I600
F0
I2
I10
I300
tp30
(dp31
g4
F0.9204878048780486
sg5
F0.82444444444444442
sg6
F0.89430363208779717
sg7
F0.85759963569363462
ss(F0.00029999999999999997
I100
F0
I5
I8
I300
tp32
(dp33
g4
F0.69219512195121957
sg5
F0.43333333333333335
sg6
F0.63408532992930089
sg7
F0.42745831506417098
ss(F0.00029999999999999997
I1200
F0
I5
I6
I300
tp34
(dp35
g4
F0.93121951219512189
sg5
F0.8600000000000001
sg6
F0.88301809258802688
sg7
F0.87132531157978843
ss(F0.00029999999999999997
I900
F0
I5
I10
I300
tp36
(dp37
g4
F0.97560975609756084
sg5
F0.95444444444444465
sg6
F0.98975966562173456
sg7
F0.97174394322747037
ss(F0.00029999999999999997
I1200
F0
I5
I4
I300
tp38
(dp39
g4
F0.93121951219512178
sg5
F0.85222222222222233
sg6
F0.89086990595611282
sg7
F0.87104918740941839
ss(F0.00029999999999999997
I900
F0
I2
I8
I300
tp40
(dp41
g4
F0.96878048780487791
sg5
F0.93666666666666676
sg6
F0.99183215066299157
sg7
F0.963427344329156
ss(F0.00029999999999999997
I900
F0
I5
I8
I300
tp42
(dp43
g4
F0.96780487804878035
sg5
F0.94666666666666677
sg6
F0.97950061037893332
sg7
F0.96263368359394452
ss(F0.00029999999999999997
I1200
F0
I2
I6
I300
tp44
(dp45
g4
F0.96780487804878035
sg5
F0.95111111111111124
sg6
F0.97568294539329858
sg7
F0.96301937790852821
ss(F0.00029999999999999997
I600
F0
I2
I6
I300
tp46
(dp47
g4
F0.94975609756097545
sg5
F0.90777777777777779
sg6
F0.97779479872800301
sg7
F0.94036504043803038
ss(F0.00029999999999999997
I300
F0
I5
I10
I300
tp48
(dp49
g4
F0.9434146341463413
sg5
F0.91666666666666663
sg6
F0.95856916032875328
sg7
F0.93303117099298993
ss(F0.00029999999999999997
I300
F0
I2
I4
I300
tp50
(dp51
g4
F0.68975609756097578
sg5
F0.56777777777777783
sg6
F0.54794574876025082
sg7
F0.50947684501956125
ss(F0.00029999999999999997
I900
F0
I4
I8
I300
tp52
(dp53
g4
F0.97365853658536572
sg5
F0.94777777777777794
sg6
F0.99195341546985483
sg7
F0.96931003353976974
ss(F0.00029999999999999997
I100
F0
I2
I10
I300
tp54
(dp55
g4
F0.60634146341463413
sg5
F0.39111111111111113
sg6
F0.26008051907442153
sg7
F0.30316681039908766
ss(F0.00029999999999999997
I900
F0
I2
I6
I300
tp56
(dp57
g4
F0.94439024390243886
sg5
F0.9044444444444445
sg6
F0.96933898596603796
sg7
F0.93451250921615192
ss(F0.00029999999999999997
I1200
F0
I4
I6
I300
tp58
(dp59
g4
F0.96926829268292669
sg5
F0.95333333333333348
sg6
F0.97628667489979581
sg7
F0.96462065974766142
ss(F0.00029999999999999997
I300
F0
I2
I2
I300
tp60
(dp61
g4
F0.63365853658536586
sg5
F0.48111111111111116
sg6
F0.43777374547839287
sg7
F0.41849277111487315
ss(F0.00029999999999999997
I900
F0
I4
I2
I300
tp62
(dp63
g4
F0.60000000000000009
sg5
F0.096666666666666665
sg6
F0.092553191489361697
sg7
F0.094565217391304357
ss(F0.00029999999999999997
I300
F0
I4
I6
I300
tp64
(dp65
g4
F0.74975609756097561
sg5
F0.47222222222222221
sg6
F0.66217490842490834
sg7
F0.48945655231346341
ss(F0.00029999999999999997
I300
F0
I2
I8
I300
tp66
(dp67
g4
F0.73560975609756096
sg5
F0.64999999999999991
sg6
F0.8482893925121342
sg7
F0.64310821150256858
ss(F0.00029999999999999997
I900
F0
I4
I4
I300
tp68
(dp69
g4
F0.91609756097560957
sg5
F0.84222222222222232
sg6
F0.86734888379866559
sg7
F0.85381872286540983
ss(F0.00029999999999999997
I100
F0
I3
I8
I300
tp70
(dp71
g4
F0.67902439024390238
sg5
F0.58555555555555561
sg6
F0.63827848053325253
sg7
F0.52040532157094999
ss(F0.00029999999999999997
I300
F0
I4
I8
I300
tp72
(dp73
g4
F0.84926829268292681
sg5
F0.68777777777777782
sg6
F0.87359640359640356
sg7
F0.7454157097707429
ss(F0.00029999999999999997
I1200
F0
I4
I10
I300
tp74
(dp75
g4
F0.9741463414634145
sg5
F0.95555555555555571
sg6
F0.98518808777429479
sg7
F0.97012603659908958
ss(F0.00029999999999999997
I100
F0
I3
I10
I300
tp76
(dp77
g4
F0.72878048780487792
sg5
F0.56111111111111112
sg6
F0.60200844086059768
sg7
F0.55564418096795576
ss(F0.00029999999999999997
I900
F0
I3
I4
I300
tp78
(dp79
g4
F0.85609756097560963
sg5
F0.71111111111111114
sg6
F0.76480884669732929
sg7
F0.73307687006713873
ss(F0.00029999999999999997
I1200
F0
I3
I2
I300
tp80
(dp81
g4
F0.79170731707317077
sg5
F0.55333333333333334
sg6
F0.57417929292929293
sg7
F0.56223511066472565
ss(F0.00029999999999999997
I300
F0
I3
I2
I300
tp82
(dp83
g4
F0.6609756097560977
sg5
F0.25555555555555554
sg6
F0.27767857142857144
sg7
F0.26260920209668026
ss(F0.00029999999999999997
I600
F0
I3
I2
I300
tp84
(dp85
g4
F0.67756097560975592
sg5
F0.31777777777777771
sg6
F0.44851907976305272
sg7
F0.33084497174438243
ss(F0.00029999999999999997
I300
F0
I5
I8
I300
tp86
(dp87
g4
F0.93707317073170715
sg5
F0.87333333333333318
sg6
F0.98316102125090876
sg7
F0.92266326796208753
ss(F0.00029999999999999997
I600
F0
I5
I2
I300
tp88
(dp89
g4
F0.61609756097560986
sg5
F0.15555555555555556
sg6
F0.17589285714285713
sg7
F0.1600204848071014
ss(F0.00029999999999999997
I900
F0
I3
I10
I300
tp90
(dp91
g4
F0.9741463414634145
sg5
F0.9522222222222223
sg6
F0.98861890760046323
sg7
F0.97003552473891463
ss(F0.00029999999999999997
I600
F0
I4
I6
I300
tp92
(dp93
g4
F0.9126829268292681
sg5
F0.85333333333333339
sg6
F0.85209500998644927
sg7
F0.85136583717743464
ss(F0.00029999999999999997
I1200
F0
I2
I2
I300
tp94
(dp95
g4
F0.73902439024390254
sg5
F0.44888888888888889
sg6
F0.4655570674583539
sg7
F0.45264614184319651
ss(F0.00029999999999999997
I600
F0
I2
I2
I300
tp96
(dp97
g4
F0.72243902439024388
sg5
F0.52666666666666662
sg6
F0.5832947616133457
sg7
F0.54314369055288869
ss(F0.00029999999999999997
I900
F0
I3
I8
I300
tp98
(dp99
g4
F0.96731707317073157
sg5
F0.94111111111111112
sg6
F0.98402120645103797
sg7
F0.96189952149324032
ss(F0.00029999999999999997
I900
F0
I2
I10
I300
tp100
(dp101
g4
F0.96975609756097547
sg5
F0.93222222222222229
sg6
F0.99883720930232545
sg7
F0.96427116671840118
ss(F0.00029999999999999997
I1200
F0
I2
I8
I300
tp102
(dp103
g4
F0.96829268292682913
sg5
F0.94111111111111123
sg6
F0.98636533066128795
sg7
F0.9630581485188624
ss(F0.00029999999999999997
I600
F0
I5
I8
I300
tp104
(dp105
g4
F0.96439024390243888
sg5
F0.9355555555555557
sg6
F0.98332965882536461
sg7
F0.95827504343286496
ss(F0.00029999999999999997
I100
F0
I4
I10
I300
tp106
(dp107
g4
F0.63609756097560977
sg5
F0.42777777777777781
sg6
F0.37817297948049772
sg7
F0.37327261935628181
ss(F0.00029999999999999997
I300
F0
I2
I6
I300
tp108
(dp109
g4
F0.78048780487804881
sg5
F0.53666666666666663
sg6
F0.76045454545454538
sg7
F0.60664844359986614
ss(F0.00029999999999999997
I100
F0
I5
I6
I300
tp110
(dp111
g4
F0.68243902439024406
sg5
F0.31333333333333335
sg6
F0.46442979267941792
sg7
F0.34573906091034068
ss(F0.00029999999999999997
I600
F0
I4
I10
I300
tp112
(dp113
g4
F0.96878048780487791
sg5
F0.94333333333333325
sg6
F0.98509544118004411
sg7
F0.96369817366724086
ss(F0.00029999999999999997
I100
F0
I2
I4
I300
tp114
(dp115
g4
F0.55658536585365848
sg5
F0.40333333333333332
sg6
F0.39345193687230989
sg7
F0.33288741929072108
ss(F0.00029999999999999997
I300
F0
I4
I2
I300
tp116
(dp117
g4
F0.6224390243902439
sg5
F0.16444444444444445
sg6
F0.2801801801801802
sg7
F0.18448596711100984
ss(F0.00029999999999999997
I1200
F0
I4
I4
I300
tp118
(dp119
g4
F0.96634146341463401
sg5
F0.94666666666666677
sg6
F0.97671713384359138
sg7
F0.96107491180994631
ss(F0.00029999999999999997
I600
F0
I4
I4
I300
tp120
(dp121
g4
F0.80487804878048785
sg5
F0.60111111111111104
sg6
F0.65458083583083582
sg7
F0.62451005532909099
ss(F0.00029999999999999997
I100
F0
I2
I2
I300
tp122
(dp123
g4
F0.61609756097560975
sg5
F0.43444444444444447
sg6
F0.33447452075652034
sg7
F0.35972374753290648
ss(F0.00029999999999999997
I600
F0
I5
I10
I300
tp124
(dp125
g4
F0.9717073170731706
sg5
F0.95333333333333359
sg6
F0.98175168924315204
sg7
F0.96731369772707199
ss(F0.00029999999999999997
I300
F0
I4
I4
I300
tp126
(dp127
g4
F0.65756097560975624
sg5
F0.2877777777777778
sg6
F0.24516329392907232
sg7
F0.26416189959659697
ss(F0.00029999999999999997
I900
F0
I3
I6
I300
tp128
(dp129
g4
F0.95804878048780473
sg5
F0.92333333333333334
sg6
F0.98066958282884931
sg7
F0.95069494301885438
ss(F0.00029999999999999997
I100
F0
I4
I6
I300
tp130
(dp131
g4
F0.63609756097560977
sg5
F0.54222222222222227
sg6
F0.48291015945495525
sg7
F0.48000221550090483
ss(F0.00029999999999999997
I600
F0
I4
I2
I300
tp132
(dp133
g4
F0.67024390243902443
sg5
F0.27555555555555555
sg6
F0.36544477028347994
sg7
F0.31029036026787205
ss(F0.00029999999999999997
I300
F0
I2
I10
I300
tp134
(dp135
g4
F0.88390243902439003
sg5
F0.76666666666666661
sg6
F0.87227722772277216
sg7
F0.81186891267210648
ss(F0.00029999999999999997
I600
F0
I3
I8
I300
tp136
(dp137
g4
F0.95902439024390229
sg5
F0.92666666666666675
sg6
F0.98127627230667536
sg7
F0.95220905253127008
ss(F0.00029999999999999997
I900
F0
I5
I6
I300
tp138
(dp139
g4
F0.96682926829268279
sg5
F0.93555555555555558
sg6
F0.98859599436331913
sg7
F0.96102359227152678
ss(F0.00029999999999999997
I1200
F0
I4
I8
I300
tp140
(dp141
g4
F0.97463414634146328
sg5
F0.95444444444444465
sg6
F0.98748693834900747
sg7
F0.97064588398334373
ss(F0.00029999999999999997
I100
F0
I5
I2
I300
tp142
(dp143
g4
F0.59512195121951228
sg5
F0.087777777777777774
sg6
F0.089772727272727268
sg7
F0.088764044943820217
ss(F0.00029999999999999997
I300
F0
I3
I6
I300
tp144
(dp145
g4
F0.7653658536585366
sg5
F0.5344444444444445
sg6
F0.74342196144626116
sg7
F0.57675210180963643
ss(F0.00029999999999999997
I1200
F0
I3
I8
I300
tp146
(dp147
g4
F0.96780487804878035
sg5
F0.94555555555555559
sg6
F0.98082876159608623
sg7
F0.96266371329707279
ss(F0.00029999999999999997
I300
F0
I3
I8
I300
tp148
(dp149
g4
F0.88536585365853648
sg5
F0.81777777777777771
sg6
F0.94166883819505642
sg7
F0.85425732153848111
ss(F0.00029999999999999997
I100
F0
I3
I2
I300
tp150
(dp151
g4
F0.59317073170731716
sg5
F0.080000000000000002
sg6
F0.32916666666666672
sg7
F0.12092415913733914
ss(F0.00029999999999999997
I900
F0
I5
I2
I300
tp152
(dp153
g4
F0.67707317073170725
sg5
F0.26444444444444443
sg6
F0.30000000000000004
sg7
F0.28105553033193281
ss(F0.00029999999999999997
I300
F0
I5
I2
I300
tp154
(dp155
g4
F0.60243902439024388
sg5
F0.10444444444444445
sg6
F0.17706766917293232
sg7
F0.11901297057893072
ss(F0.00029999999999999997
I600
F0
I2
I8
I300
tp156
(dp157
g4
F0.95219512195121936
sg5
F0.89777777777777779
sg6
F0.9927339424141749
sg7
F0.94246923699038199
ss(F0.00029999999999999997
I1200
F0
I3
I10
I300
tp158
(dp159
g4
F0.97365853658536572
sg5
F0.95555555555555571
sg6
F0.98406478578892387
sg7
F0.96958010883929768
ss(F0.00029999999999999997
I300
F0
I3
I10
I300
tp160
(dp161
g4
F0.93170731707317056
sg5
F0.87222222222222223
sg6
F0.97243813465204798
sg7
F0.91625112780648343
ss(F0.00029999999999999997
I600
F0
I5
I6
I300
tp162
(dp163
g4
F0.95902439024390229
sg5
F0.92777777777777781
sg6
F0.97923303289590513
sg7
F0.95202333098183944
ss(F0.00029999999999999997
I900
F0
I3
I2
I300
tp164
(dp165
g4
F0.70878048780487812
sg5
F0.3477777777777778
sg6
F0.38825036075036073
sg7
F0.3657598773911902
ss(F0.00029999999999999997
I1200
F0
I5
I10
I300
tp166
(dp167
g4
F0.97707317073170719
sg5
F0.95555555555555571
sg6
F0.99203239289446188
sg7
F0.9734264180560126
ss(F0.00029999999999999997
I1200
F0
I2
I4
I300
tp168
(dp169
g4
F0.93170731707317067
sg5
F0.86888888888888893
sg6
F0.97615853970570954
sg7
F0.90105011562416037
ss(F0.00029999999999999997
I600
F0
I2
I4
I300
tp170
(dp171
g4
F0.8492682926829267
sg5
F0.67666666666666664
sg6
F0.78082688471162542
sg7
F0.71996934245269828
ss(F0.00029999999999999997
I900
F0
I4
I10
I300
tp172
(dp173
g4
F0.97365853658536572
sg5
F0.95555555555555571
sg6
F0.98409002853016803
sg7
F0.9695862085908038
ss(F0.00029999999999999997
I1200
F0
I5
I8
I300
tp174
(dp175
g4
F0.97609756097560962
sg5
F0.95555555555555571
sg6
F0.98975966562173467
sg7
F0.97232835881188606
ss(F0.00029999999999999997
I100
F0
I2
I8
I300
tp176
(dp177
g4
F0.6429268292682927
sg5
F0.35222222222222221
sg6
F0.62839643103618259
sg7
F0.40380578175807169
ss(F0.00029999999999999997
I900
F0
I2
I4
I300
tp178
(dp179
g4
F0.89317073170731687
sg5
F0.76666666666666672
sg6
F0.98991033370878323
sg7
F0.82393251517530097
ss(F0.00029999999999999997
I1200
F0
I2
I10
I300
tp180
(dp181
g4
F0.96878048780487791
sg5
F0.93888888888888888
sg6
F0.98953392904876458
sg7
F0.96345046240275267
ss(F0.00029999999999999997
I100
F0
I4
I8
I300
tp182
(dp183
g4
F0.68487804878048786
sg5
F0.62000000000000011
sg6
F0.6773529103797663
sg7
F0.57909951764495704
ss(F0.00029999999999999997
I600
F0
I4
I8
I300
tp184
(dp185
g4
F0.95999999999999985
sg5
F0.92222222222222217
sg6
F0.98660722492876174
sg7
F0.95246465700774141
ss(F0.00029999999999999997
I100
F0
I2
I6
I300
tp186
(dp187
g4
F0.64097560975609758
sg5
F0.51333333333333331
sg6
F0.53132612319272798
sg7
F0.45984833231096872
ss(F0.00029999999999999997
I900
F0
I2
I2
I300
tp188
(dp189
g4
F0.79268292682926833
sg5
F0.60000000000000009
sg6
F0.63895109296256047
sg7
F0.60700881130404338
ss(F0.00029999999999999997
I1200
F0
I4
I2
I300
tp190
(dp191
g4
F0.64146341463414647
sg5
F0.18777777777777777
sg6
F0.19550561797752808
sg7
F0.19152379117703716
ss(F0.00029999999999999997
I100
F0
I4
I2
I300
tp192
(dp193
g4
F0.64341463414634148
sg5
F0.37555555555555553
sg6
F0.299135287205196
sg7
F0.3223547753317596
ss(F0.00029999999999999997
I900
F0
I4
I6
I300
tp194
(dp195
g4
F0.96439024390243888
sg5
F0.93333333333333335
sg6
F0.98509604869869505
sg7
F0.9582392611184094
ss(F0.00029999999999999997
I300
F0
I4
I10
I300
tp196
(dp197
g4
F0.94536585365853643
sg5
F0.92222222222222239
sg6
F0.95828473673522374
sg7
F0.9367468077894272
ss(F0.00029999999999999997
I100
F0
I4
I4
I300
tp198
(dp199
g4
F0.61560975609756108
sg5
F0.16333333333333333
sg6
F0.2682917965686743
sg7
F0.185862912979991
ss(F0.00029999999999999997
I1200
F0
I5
I2
I300
tp200
(dp201
g4
F0.71170731707317081
sg5
F0.34333333333333327
sg6
F0.40000000000000002
sg7
F0.36932776634770614
ss(F0.00029999999999999997
I600
F0
I3
I10
I300
tp202
(dp203
g4
F0.96975609756097547
sg5
F0.93555555555555558
sg6
F0.99540229885057474
sg7
F0.96447673375732634
ss(F0.00029999999999999997
I100
F0
I3
I4
I300
tp204
(dp205
g4
F0.70780487804878045
sg5
F0.45111111111111107
sg6
F0.48978298390063096
sg7
F0.43895482295482291
ss.