(dp1
(F0.001
I300
F0
I3
I4
I300
tp2
(dp3
S'acc'
p4
F0.93707317073170715
sS'rec'
p5
F0.86111111111111105
sS'prec'
p6
F0.9952374202693125
sS'f1'
p7
F0.92193958853826774
ss(F0.001
I100
F0
I5
I2
I300
tp8
(dp9
g4
F0.56097560975609762
sg5
F0
sg6
F0
sg7
F0
ss(F0.001
I900
F0
I3
I10
I300
tp10
(dp11
g4
F0.97365853658536572
sg5
F0.95555555555555571
sg6
F0.98409090909090913
sg7
F0.96958631256384098
ss(F0.001
I600
F0
I2
I10
I300
tp12
(dp13
g4
F0.97219512195121938
sg5
F0.95444444444444443
sg6
F0.98173981191222581
sg7
F0.96789183012759472
ss(F0.001
I100
F0
I5
I4
I300
tp14
(dp15
g4
F0.75121951219512195
sg5
F0.44777777777777783
sg6
F0.58332614403600902
sg7
F0.49395869077884508
ss(F0.001
I900
F0
I3
I8
I300
tp16
(dp17
g4
F0.97512195121951206
sg5
F0.95555555555555571
sg6
F0.98746081504702188
sg7
F0.97122409584321612
ss(F0.001
I900
F0
I3
I2
I300
tp18
(dp19
g4
F0.88731707317073172
sg5
F0.75555555555555554
sg6
F0.78758794845001745
sg7
F0.77104976063398301
ss(F0.001
I300
F0
I5
I2
I300
tp20
(dp21
g4
F0.78146341463414637
sg5
F0.52666666666666673
sg6
F0.57519231869137499
sg7
F0.54728737978284836
ss(F0.001
I100
F0
I2
I4
I300
tp22
(dp23
g4
F0.68341463414634152
sg5
F0.29333333333333333
sg6
F0.57809879493166005
sg7
F0.3704367436716744
ss(F0.001
I1200
F0
I3
I8
I300
tp24
(dp25
g4
F0.97268292682926816
sg5
F0.95555555555555571
sg6
F0.98181818181818203
sg7
F0.96848825331971433
ss(F0.001
I1200
F0
I4
I10
I300
tp26
(dp27
g4
F0.97804878048780475
sg5
F0.95444444444444454
sg6
F0.99541505674224184
sg7
F0.97448617290790229
ss(F0.001
I900
F0
I5
I4
I300
tp28
(dp29
g4
F0.89658536585365856
sg5
F0.76444444444444448
sg6
F0.79999999999999993
sg7
F0.78181818181818197
ss(F0.001
I300
F0
I2
I10
I300
tp30
(dp31
g4
F0.97073170731707303
sg5
F0.93777777777777771
sg6
F0.99535966275248977
sg7
F0.96554344269780112
ss(F0.001
I900
F0
I5
I6
I300
tp32
(dp33
g4
F0.97756097560975597
sg5
F0.95555555555555571
sg6
F0.99320706092306243
sg7
F0.97398464929185347
ss(F0.001
I300
F0
I2
I4
I300
tp34
(dp35
g4
F0.90634146341463406
sg5
F0.81666666666666676
sg6
F0.87284093115193861
sg7
F0.84174186197701051
ss(F0.001
I1200
F0
I2
I6
I300
tp36
(dp37
g4
F0.9717073170731706
sg5
F0.95555555555555571
sg6
F0.97954545454545472
sg7
F0.96739019407558768
ss(F0.001
I100
F0
I2
I8
I300
tp38
(dp39
g4
F0.88585365853658515
sg5
F0.77777777777777779
sg6
F0.96480347174116787
sg7
F0.83909988100869681
ss(F0.001
I900
F0
I2
I6
I300
tp40
(dp41
g4
F0.97073170731707303
sg5
F0.95555555555555571
sg6
F0.97734761407175208
sg7
F0.96631033242345388
ss(F0.001
I1200
F0
I5
I8
I300
tp42
(dp43
g4
F0.97707317073170719
sg5
F0.95555555555555571
sg6
F0.99203239289446188
sg7
F0.9734264180560126
ss(F0.001
I300
F0
I4
I2
I300
tp44
(dp45
g4
F0.68292682926829285
sg5
F0.27777777777777779
sg6
F0.30000000000000004
sg7
F0.28841787205796943
ss(F0.001
I300
F0
I5
I8
I300
tp46
(dp47
g4
F0.93073170731707311
sg5
F0.85666666666666669
sg6
F0.8851880877742947
sg7
F0.8706454032639851
ss(F0.001
I100
F0
I4
I4
I300
tp48
(dp49
g4
F0.61073170731707327
sg5
F0.37
sg6
F0.36875591597671087
sg7
F0.32413805456160666
ss(F0.001
I900
F0
I4
I6
I300
tp50
(dp51
g4
F0.9741463414634145
sg5
F0.95555555555555571
sg6
F0.98521421107628016
sg7
F0.97013224032363266
ss(F0.001
I100
F0
I4
I10
I300
tp52
(dp53
g4
F0.9409756097560974
sg5
F0.93000000000000005
sg6
F0.94044171961916789
sg7
F0.93281908475983366
ss(F0.001
I600
F0
I3
I6
I300
tp54
(dp55
g4
F0.96975609756097547
sg5
F0.95333333333333337
sg6
F0.97743391665805457
sg7
F0.9651724493313838
ss(F0.001
I900
F0
I2
I10
I300
tp56
(dp57
g4
F0.9717073170731706
sg5
F0.95555555555555571
sg6
F0.97954545454545472
sg7
F0.96739019407558768
ss(F0.001
I600
F0
I4
I4
I300
tp58
(dp59
g4
F0.96926829268292669
sg5
F0.95333333333333337
sg6
F0.9763611001551723
sg7
F0.96463872107460413
ss(F0.001
I600
F0
I5
I4
I300
tp60
(dp61
g4
F0.93512195121951214
sg5
F0.8600000000000001
sg6
F0.89200626959247653
sg7
F0.87569294160419675
ss(F0.001
I300
F0
I2
I6
I300
tp62
(dp63
g4
F0.96097560975609742
sg5
F0.92555555555555546
sg6
F0.98552058805117759
sg7
F0.95417688769941356
ss(F0.001
I600
F0
I3
I4
I300
tp64
(dp65
g4
F0.9229268292682925
sg5
F0.85000000000000009
sg6
F0.87471312804538071
sg7
F0.86182980786691332
ss(F0.001
I300
F0
I3
I10
I300
tp66
(dp67
g4
F0.9741463414634145
sg5
F0.9522222222222223
sg6
F0.98873163724807656
sg7
F0.97006614511062494
ss(F0.001
I600
F0
I4
I2
I300
tp68
(dp69
g4
F0.80292682926829273
sg5
F0.56666666666666665
sg6
F0.58438554921902153
sg7
F0.57520214415594939
ss(F0.001
I900
F0
I3
I6
I300
tp70
(dp71
g4
F0.97512195121951206
sg5
F0.95555555555555571
sg6
F0.98748693834900725
sg7
F0.9712302995677593
ss(F0.001
I100
F0
I3
I10
I300
tp72
(dp73
g4
F0.91073170731707298
sg5
F0.82222222222222219
sg6
F0.97276049848959623
sg7
F0.86309350752437652
ss(F0.001
I600
F0
I2
I6
I300
tp74
(dp75
g4
F0.97024390243902425
sg5
F0.93777777777777782
sg6
F0.99422582826233941
sg7
F0.96494882912138769
ss(F0.001
I100
F0
I5
I8
I300
tp76
(dp77
g4
F0.84292682926829254
sg5
F0.7055555555555556
sg6
F0.74338481242237586
sg7
F0.7178593308027067
ss(F0.001
I600
F0
I4
I8
I300
tp78
(dp79
g4
F0.97317073170731694
sg5
F0.95555555555555571
sg6
F0.98294148380355295
sg7
F0.96903418107950612
ss(F0.001
I900
F0
I3
I4
I300
tp80
(dp81
g4
F0.9717073170731706
sg5
F0.95111111111111124
sg6
F0.9840377819261974
sg7
F0.96724934593590639
ss(F0.001
I100
F0
I3
I8
I300
tp82
(dp83
g4
F0.84585365853658523
sg5
F0.65777777777777779
sg6
F0.79113313902460769
sg7
F0.71378330512971977
ss(F0.001
I600
F0
I2
I8
I300
tp84
(dp85
g4
F0.97268292682926816
sg5
F0.95333333333333359
sg6
F0.98401253918495313
sg7
F0.96841207735323154
ss(F0.001
I100
F0
I5
I10
I300
tp86
(dp87
g4
F0.89121951219512185
sg5
F0.78111111111111109
sg6
F0.87328351156601558
sg7
F0.82058903852860221
ss(F0.001
I1200
F0
I2
I10
I300
tp88
(dp89
g4
F0.97073170731707303
sg5
F0.95555555555555571
sg6
F0.97727272727272751
sg7
F0.96629213483146104
ss(F0.001
I100
F0
I2
I2
I300
tp90
(dp91
g4
F0.54975609756097565
sg5
F0.11222222222222222
sg6
F0.10860480982432202
sg7
F0.10891805569418105
ss(F0.001
I1200
F0
I4
I4
I300
tp92
(dp93
g4
F0.93463414634146336
sg5
F0.8600000000000001
sg6
F0.8908829676071055
sg7
F0.87514701384440508
ss(F0.001
I900
F0
I5
I2
I300
tp94
(dp95
g4
F0.81121951219512201
sg5
F0.57333333333333336
sg6
F0.59657784743991638
sg7
F0.5847134456351748
ss(F0.001
I600
F0
I5
I2
I300
tp96
(dp97
g4
F0.68341463414634163
sg5
F0.28222222222222226
sg6
F0.29649763353617309
sg7
F0.28917514124293786
ss(F0.001
I300
F0
I4
I8
I300
tp98
(dp99
g4
F0.97268292682926816
sg5
F0.95333333333333337
sg6
F0.98401165862421203
sg7
F0.96841197338019447
ss(F0.001
I300
F0
I2
I8
I300
tp100
(dp101
g4
F0.9536585365853657
sg5
F0.9211111111111111
sg6
F0.974091132096924
sg7
F0.94541719563790783
ss(F0.001
I1200
F0
I4
I2
I300
tp102
(dp103
g4
F0.85073170731707326
sg5
F0.6677777777777778
sg6
F0.69201902748414379
sg7
F0.67966036772216565
ss(F0.001
I600
F0
I3
I10
I300
tp104
(dp105
g4
F0.97268292682926816
sg5
F0.95555555555555571
sg6
F0.98176593521421118
sg7
F0.96847584587062796
ss(F0.001
I300
F0
I2
I2
I300
tp106
(dp107
g4
F0.69756097560975605
sg5
F0.33111111111111113
sg6
F0.38115131578947375
sg7
F0.35045324861463878
ss(F0.001
I900
F0
I2
I4
I300
tp108
(dp109
g4
F0.97317073170731694
sg5
F0.95333333333333359
sg6
F0.98523685127133409
sg7
F0.96898240642955935
ss(F0.001
I300
F0
I4
I4
I300
tp110
(dp111
g4
F0.9512195121951218
sg5
F0.91555555555555568
sg6
F0.97381300577781293
sg7
F0.94262840924459756
ss(F0.001
I900
F0
I4
I2
I300
tp112
(dp113
g4
F0.80878048780487799
sg5
F0.56666666666666665
sg6
F0.59768778401496925
sg7
F0.58171229014055192
ss(F0.001
I100
F0
I4
I6
I300
tp114
(dp115
g4
F0.79365853658536589
sg5
F0.56333333333333335
sg6
F0.66756536051711335
sg7
F0.58596524926754201
ss(F0.001
I1200
F0
I3
I2
I300
tp116
(dp117
g4
F0.84926829268292681
sg5
F0.6677777777777778
sg6
F0.6886734837085341
sg7
F0.67802858022125911
ss(F0.001
I1200
F0
I3
I4
I300
tp118
(dp119
g4
F0.97560975609756084
sg5
F0.95444444444444465
sg6
F0.98970741901776393
sg7
F0.97173813934430975
ss(F0.001
I900
F0
I4
I8
I300
tp120
(dp121
g4
F0.97853658536585353
sg5
F0.95555555555555571
sg6
F0.99542842215256011
sg7
F0.97507040505993103
ss(F0.001
I600
F0
I3
I8
I300
tp122
(dp123
g4
F0.97365853658536572
sg5
F0.95555555555555571
sg6
F0.9840386624869385
sg7
F0.9695739051147545
ss(F0.001
I900
F0
I2
I8
I300
tp124
(dp125
g4
F0.97024390243902425
sg5
F0.95444444444444454
sg6
F0.97724660397074214
sg7
F0.96570811908842791
ss(F0.001
I600
F0
I4
I6
I300
tp126
(dp127
g4
F0.9741463414634145
sg5
F0.95555555555555571
sg6
F0.98526557711950979
sg7
F0.97014454379968185
ss(F0.001
I100
F0
I3
I2
I300
tp128
(dp129
g4
F0.65902439024390258
sg5
F0.30333333333333334
sg6
F0.34947800149142433
sg7
F0.31130312792608739
ss(F0.001
I1200
F0
I5
I2
I300
tp130
(dp131
g4
F0.81121951219512201
sg5
F0.57222222222222219
sg6
F0.59770114942528729
sg7
F0.58468156137647664
ss(F0.001
I100
F0
I3
I6
I300
tp132
(dp133
g4
F0.81853658536585372
sg5
F0.67000000000000015
sg6
F0.72795168067226879
sg7
F0.6805356805430367
ss(F0.001
I600
F0
I2
I2
I300
tp134
(dp135
g4
F0.85268292682926827
sg5
F0.67888888888888888
sg6
F0.78566302990826675
sg7
F0.72111327206572029
ss(F0.001
I300
F0
I3
I2
I300
tp136
(dp137
g4
F0.7575609756097561
sg5
F0.48333333333333328
sg6
F0.56834831834831834
sg7
F0.51824129731843671
ss(F0.001
I100
F0
I3
I4
I300
tp138
(dp139
g4
F0.82195121951219507
sg5
F0.62666666666666659
sg6
F0.76592324562777048
sg7
F0.6792825360474547
ss(F0.001
I600
F0
I2
I4
I300
tp140
(dp141
g4
F0.96292682926829254
sg5
F0.93888888888888888
sg6
F0.97738136320358859
sg7
F0.9572307857081962
ss(F0.001
I300
F0
I5
I10
I300
tp142
(dp143
g4
F0.9717073170731706
sg5
F0.95555555555555571
sg6
F0.9795706972866991
sg7
F0.96739629382709369
ss(F0.001
I1200
F0
I3
I10
I300
tp144
(dp145
g4
F0.97512195121951206
sg5
F0.95555555555555571
sg6
F0.98748693834900747
sg7
F0.9712302995677593
ss(F0.001
I100
F0
I5
I6
I300
tp146
(dp147
g4
F0.69219512195121957
sg5
F0.35222222222222221
sg6
F0.3571428571428571
sg7
F0.34932749737135027
ss(F0.001
I600
F0
I4
I10
I300
tp148
(dp149
g4
F0.97365853658536572
sg5
F0.95555555555555571
sg6
F0.98409090909090924
sg7
F0.96958631256384098
ss(F0.001
I300
F0
I5
I4
I300
tp150
(dp151
g4
F0.88048780487804867
sg5
F0.74111111111111105
sg6
F0.78632711196268801
sg7
F0.76261655309118404
ss(F0.001
I100
F0
I2
I6
I300
tp152
(dp153
g4
F0.79121951219512199
sg5
F0.67222222222222228
sg6
F0.82122768792252265
sg7
F0.69266792514977671
ss(F0.001
I1200
F0
I4
I8
I300
tp154
(dp155
g4
F0.97902439024390231
sg5
F0.95555555555555571
sg6
F0.99657784743991629
sg7
F0.97562253654426589
ss(F0.001
I600
F0
I5
I6
I300
tp156
(dp157
g4
F0.9765853658536584
sg5
F0.95555555555555571
sg6
F0.99088296760710548
sg7
F0.97287428657167774
ss(F0.001
I1200
F0
I2
I8
I300
tp158
(dp159
g4
F0.9717073170731706
sg5
F0.95555555555555571
sg6
F0.97954545454545472
sg7
F0.96739019407558768
ss(F0.001
I300
F0
I5
I6
I300
tp160
(dp161
g4
F0.9717073170731706
sg5
F0.94333333333333358
sg6
F0.99200626959247651
sg7
F0.96688982779368948
ss(F0.001
I1200
F0
I4
I6
I300
tp162
(dp163
g4
F0.97804878048780475
sg5
F0.95555555555555571
sg6
F0.99430512016718908
sg7
F0.97452447730013936
ss(F0.001
I900
F0
I5
I8
I300
tp164
(dp165
g4
F0.97951219512195109
sg5
F0.95555555555555571
sg6
F0.99772727272727268
sg7
F0.97617466802860087
ss(F0.001
I600
F0
I5
I8
I300
tp166
(dp167
g4
F0.9765853658536584
sg5
F0.95555555555555571
sg6
F0.99090909090909096
sg7
F0.97288049029622092
ss(F0.001
I300
F0
I4
I10
I300
tp168
(dp169
g4
F0.97268292682926816
sg5
F0.95555555555555571
sg6
F0.9818434245594263
sg7
F0.96849435307122023
ss(F0.001
I1200
F0
I2
I2
I300
tp170
(dp171
g4
F0.72487804878048789
sg5
F0.37888888888888889
sg6
F0.39429175475687106
sg7
F0.38640106019513226
ss(F0.001
I100
F0
I2
I10
I300
tp172
(dp173
g4
F0.88780487804878028
sg5
F0.81000000000000005
sg6
F0.95131386555648223
sg7
F0.8513807602619301
ss(F0.001
I300
F0
I3
I6
I300
tp174
(dp175
g4
F0.96829268292682913
sg5
F0.93222222222222217
sg6
F0.99534852272905949
sg7
F0.96251689056677059
ss(F0.001
I900
F0
I5
I10
I300
tp176
(dp177
g4
F0.97902439024390231
sg5
F0.95555555555555571
sg6
F0.99662921348314593
sg7
F0.97563484002031509
ss(F0.001
I600
F0
I5
I10
I300
tp178
(dp179
g4
F0.97609756097560962
sg5
F0.95555555555555571
sg6
F0.98975966562173456
sg7
F0.97232835881188595
ss(F0.001
I1200
F0
I2
I4
I300
tp180
(dp181
g4
F0.97219512195121938
sg5
F0.95333333333333337
sg6
F0.98294148380355295
sg7
F0.96786534991067485
ss(F0.001
I100
F0
I4
I2
I300
tp182
(dp183
g4
F0.6453658536585366
sg5
F0.21666666666666667
sg6
F0.27638251630041055
sg7
F0.2319846977451169
ss(F0.001
I900
F0
I2
I2
I300
tp184
(dp185
g4
F0.95707317073170717
sg5
F0.92666666666666664
sg6
F0.97547136364477682
sg7
F0.94971685480034551
ss(F0.001
I1200
F0
I5
I4
I300
tp186
(dp187
g4
F0.97707317073170719
sg5
F0.95555555555555571
sg6
F0.99208375893769152
sg7
F0.97343872153206179
ss(F0.001
I300
F0
I4
I6
I300
tp188
(dp189
g4
F0.96634146341463401
sg5
F0.94111111111111123
sg6
F0.98183933393384393
sg7
F0.96079291370280107
ss(F0.001
I900
F0
I4
I4
I300
tp190
(dp191
g4
F0.93658536585365848
sg5
F0.8600000000000001
sg6
F0.89545454545454539
sg7
F0.87734933605720145
ss(F0.001
I100
F0
I4
I8
I300
tp192
(dp193
g4
F0.83756097560975595
sg5
F0.63888888888888895
sg6
F0.79139040079168721
sg7
F0.7012309827383979
ss(F0.001
I300
F0
I3
I8
I300
tp194
(dp195
g4
F0.96926829268292669
sg5
F0.94333333333333347
sg6
F0.98647197162634204
sg7
F0.96425822215348755
ss(F0.001
I1200
F0
I5
I6
I300
tp196
(dp197
g4
F0.97853658536585353
sg5
F0.95555555555555571
sg6
F0.99545454545454537
sg7
F0.97507660878447422
ss(F0.001
I1200
F0
I3
I6
I300
tp198
(dp199
g4
F0.97707317073170719
sg5
F0.95555555555555571
sg6
F0.99203239289446188
sg7
F0.97342641805601271
ss(F0.001
I900
F0
I4
I10
I300
tp200
(dp201
g4
F0.97707317073170719
sg5
F0.95555555555555571
sg6
F0.99203239289446188
sg7
F0.9734264180560126
ss(F0.001
I600
F0
I3
I2
I300
tp202
(dp203
g4
F0.91804878048780481
sg5
F0.83444444444444454
sg6
F0.87940949137069824
sg7
F0.85551216473418912
ss.